CCS PCH C Compiler, Version 4.130, 59972               04-nov-15 17:43

               Filename: C:\OneDrive\tesis\codigo\sistema_riego_tesis_placas_nueva-v31\placa_central\placa_central.lst

               ROM used: 32568 bytes (99%)
                         Largest free fragment is 196
               RAM used: 474 (23%) at main() level
                         631 (31%) worst case
               Stack:    11 worst case (4 in main + 7 for interrupts)

*
0000:  GOTO   7BFE
*
0008:  MOVWF  04
000A:  MOVFF  FD8,05
000E:  MOVFF  FE0,06
0012:  MOVLB  0
0014:  MOVFF  FE9,0C
0018:  MOVFF  FEA,07
001C:  MOVFF  FE1,08
0020:  MOVFF  FE2,09
0024:  MOVFF  FD9,0A
0028:  MOVFF  FDA,0B
002C:  MOVFF  FF3,12
0030:  MOVFF  FF4,13
0034:  MOVFF  FFA,14
0038:  MOVFF  FF5,15
003C:  MOVFF  FF6,16
0040:  MOVFF  FF7,17
0044:  MOVFF  00,0E
0048:  MOVFF  01,0F
004C:  MOVFF  02,10
0050:  MOVFF  03,11
0054:  BTFSS  FF0.4
0056:  GOTO   0060
005A:  BTFSC  FF0.1
005C:  GOTO   01C0
0060:  BTFSS  F9D.5
0062:  GOTO   006C
0066:  BTFSC  F9E.5
0068:  GOTO   0214
006C:  MOVFF  0E,00
0070:  MOVFF  0F,01
0074:  MOVFF  10,02
0078:  MOVFF  11,03
007C:  MOVFF  0C,FE9
0080:  MOVFF  07,FEA
0084:  BSF    07.7
0086:  MOVFF  08,FE1
008A:  MOVFF  09,FE2
008E:  MOVFF  0A,FD9
0092:  MOVFF  0B,FDA
0096:  MOVFF  12,FF3
009A:  MOVFF  13,FF4
009E:  MOVFF  14,FFA
00A2:  MOVFF  15,FF5
00A6:  MOVFF  16,FF6
00AA:  MOVFF  17,FF7
00AE:  MOVF   04,W
00B0:  MOVFF  06,FE0
00B4:  MOVFF  05,FD8
00B8:  RETFIE 0
.................... #include <18F4550.h> 
.................... //////// Standard Header file for the PIC18F4550 device //////////////// 
.................... #device PIC18F4550 
.................... #list 
....................  
.................... #device adc=10 
.................... #FUSES NODEBUG 
.................... #FUSES VREGEN  
.................... #FUSES NOPBADEN 
.................... #FUSES NOMCLR 
.................... #FUSES PUT 
.................... #FUSES NOWDT                    //No Watch Dog Timer 
.................... #FUSES WDT128                   //Watch Dog Timer uses 1:128 Postscale 
.................... #FUSES PLL1                     //No PLL PreScaler 
.................... #FUSES CPUDIV1                  //No System Clock Postscaler 
.................... #FUSES NOUSBDIV                 //USB clock source comes from primary oscillator 
.................... #FUSES HS                       //High speed Osc (> 4mhz for PCM/PCH) (>10mhz for PCD) 
.................... #FUSES BROWNOUT                 //No brownout reset 
.................... #FUSES NOLVP                    //No low voltage prgming, B3(PIC16) or B5(PIC18) used for I/O 
.................... #FUSES NOXINST                  //Extended set extension and Indexed Addressing mode disabled (Legacy mode) 
.................... #use delay(clock=20000000) 
*
0C9E:  MOVLW  03
0CA0:  MOVLB  2
0CA2:  SUBWF  x55,F
0CA4:  BNC   0CBA
0CA6:  MOVLW  02
0CA8:  MOVWF  FEA
0CAA:  MOVLW  55
0CAC:  MOVWF  FE9
0CAE:  MOVF   FEF,W
0CB0:  BZ    0CBA
0CB2:  BRA    0CB6
0CB4:  BRA    0CB6
0CB6:  DECFSZ FEF,F
0CB8:  BRA    0CB4
0CBA:  MOVLB  0
0CBC:  RETURN 0
*
0D34:  MOVLW  02
0D36:  MOVWF  FEA
0D38:  MOVLW  5F
0D3A:  MOVWF  FE9
0D3C:  MOVF   FEF,W
0D3E:  BZ    0D5A
0D40:  MOVLW  06
0D42:  MOVWF  01
0D44:  CLRF   00
0D46:  DECFSZ 00,F
0D48:  BRA    0D46
0D4A:  DECFSZ 01,F
0D4C:  BRA    0D44
0D4E:  MOVLW  7B
0D50:  MOVWF  00
0D52:  DECFSZ 00,F
0D54:  BRA    0D52
0D56:  DECFSZ FEF,F
0D58:  BRA    0D40
0D5A:  RETURN 0
.................... #use rs232(baud=9600,parity=N,xmit=PIN_C6,rcv=PIN_C7,bits=8 ,stop=2,stream=PORT1,enable=PIN_E2)//, 
*
0CBE:  BCF    F96.2
0CC0:  BSF    F8D.2
0CC2:  BTFSS  F9E.4
0CC4:  BRA    0CC2
0CC6:  MOVLB  2
0CC8:  MOVF   x54,W
0CCA:  MOVWF  FAD
0CCC:  BTFSS  FAC.1
0CCE:  BRA    0CCC
0CD0:  MOVLW  D0
0CD2:  MOVWF  x55
0CD4:  MOVLB  0
0CD6:  RCALL  0C9E
0CD8:  NOP   
0CDA:  BCF    F96.2
0CDC:  BSF    F8D.2
0CDE:  BTFSS  FAC.1
0CE0:  BRA    0CDE
0CE2:  BCF    F96.2
0CE4:  BCF    F8D.2
0CE6:  GOTO   0D12 (RETURN)
.................... #use rs232(baud=9600,parity=N,xmit=PIN_E0,rcv=PIN_B2,bits=8 ,stop=1, STREAM=PORT2,FORCE_SW)// 
*
0174:  BSF    F93.2
0176:  BTFSC  F81.2
0178:  BRA    0176
017A:  MOVLW  08
017C:  MOVWF  00
017E:  MOVLB  2
0180:  CLRF   x4F
0182:  BSF    00.7
0184:  BRA    01A2
0186:  BCF    00.7
0188:  BRA    01A2
018A:  BCF    FD8.0
018C:  BTFSC  F81.2
018E:  BSF    FD8.0
0190:  RRCF   x4F,F
0192:  BSF    00.6
0194:  BRA    01A2
0196:  BCF    00.6
0198:  DECFSZ 00,F
019A:  BRA    018A
019C:  MOVFF  24F,01
01A0:  BRA    01BA
01A2:  MOVLW  A7
01A4:  BTFSC  00.7
01A6:  MOVLW  2D
01A8:  MOVWF  01
01AA:  DECFSZ 01,F
01AC:  BRA    01AA
01AE:  NOP   
01B0:  BTFSC  00.7
01B2:  BRA    0186
01B4:  BTFSC  00.6
01B6:  BRA    0196
01B8:  BRA    018A
01BA:  MOVLB  0
01BC:  GOTO   01C6 (RETURN)
*
745C:  BCF    F96.0
745E:  BCF    F8D.0
7460:  MOVLW  08
7462:  MOVWF  01
7464:  BRA    7466
7466:  NOP   
7468:  BSF    01.7
746A:  BRA    748C
746C:  BCF    01.7
746E:  MOVLB  2
7470:  RRCF   x53,F
7472:  MOVLB  0
7474:  BTFSC  FD8.0
7476:  BSF    F8D.0
7478:  BTFSS  FD8.0
747A:  BCF    F8D.0
747C:  BSF    01.6
747E:  BRA    748C
7480:  BCF    01.6
7482:  DECFSZ 01,F
7484:  BRA    746E
7486:  BRA    7488
7488:  NOP   
748A:  BSF    F8D.0
748C:  MOVLW  A7
748E:  MOVWF  FE9
7490:  DECFSZ FE9,F
7492:  BRA    7490
7494:  BRA    7496
7496:  BTFSC  01.7
7498:  BRA    746C
749A:  BTFSC  01.6
749C:  BRA    7480
749E:  RETURN 0
.................... #use rtos(timer = 0, minor_cycle =5ms) 
.................... #use standard_io (a) 
.................... #use standard_io (b)  
.................... #use standard_io (c)  
.................... #use standard_io (d)  
.................... #use standard_io (e) 
.................... #define RTC_SDA  PIN_B0 
.................... #define RTC_SCL  PIN_B1 
.................... #include <lcd_16x4.c> 
....................  // Flex_LCD416.c  
....................  
.................... // These pins are for my Microchip PicDem2-Plus board,  
.................... // which I used to test this driver.  
.................... // An external 20x4 LCD is connected to these pins.  
.................... // Change these pins to match your own board's connections.  
....................  
....................  
....................  
.................... #define LCD_DB4   PIN_D4                                    
.................... #define LCD_DB5   PIN_D2  
.................... #define LCD_DB6   PIN_D1  
.................... #define LCD_DB7   PIN_D0  
.................... #define LCD_RS    PIN_D6  
.................... #define LCD_RW    PIN_D5                         
.................... #define LCD_E     PIN_D7  
....................    
....................  
.................... /*  
.................... // To prove that the driver can be used with random  
.................... // pins, I also tested it with these pins:  
.................... #define LCD_DB4   PIN_D4  
.................... #define LCD_DB5   PIN_B1  
.................... #define LCD_DB6   PIN_C5                     
.................... #define LCD_DB7   PIN_B5  
....................  
.................... #define LCD_RS    PIN_E2  
.................... #define LCD_RW    PIN_B2  
.................... #define LCD_E     PIN_D6  
.................... */  
....................  
.................... // If you want only a 6-pin interface to your LCD, then  
.................... // connect the R/W pin on the LCD to ground, and comment  
.................... // out the following line.  Doing so will save one PIC  
.................... // pin, but at the cost of losing the ability to read from  
.................... // the LCD.  It also makes the write time a little longer  
.................... // because a static delay must be used, instead of polling  
.................... // the LCD's busy bit.  Normally a 6-pin interface is only  
.................... // used if you are running out of PIC pins, and you need  
.................... // to use as few as possible for the LCD.  
.................... #define USE_RW_PIN   1       
....................  
....................  
.................... // These are the line addresses for most 4x20 LCDs.  
.................... #define LCD_LINE_1_ADDRESS 0x00  
.................... #define LCD_LINE_2_ADDRESS 0x40  
.................... #define LCD_LINE_3_ADDRESS 0x10  
.................... #define LCD_LINE_4_ADDRESS 0x50  
....................  
.................... // These are the line addresses for LCD's which use  
.................... // the Hitachi HD66712U controller chip.  
.................... /*  
.................... #define LCD_LINE_1_ADDRESS 0x00  
.................... #define LCD_LINE_2_ADDRESS 0x20  
.................... #define LCD_LINE_3_ADDRESS 0x40  
.................... #define LCD_LINE_4_ADDRESS 0x60  
.................... */  
....................  
....................  
.................... //========================================  
....................  
.................... #define lcd_type 2   // 0=5x7, 1=5x10, 2=2 lines(or more)  
....................  
.................... int8 lcd_line;  
....................  
.................... int8 const LCD_INIT_STRING[4] =  
.................... {  
....................  0x20 | (lcd_type << 2),  // Set mode: 4-bit, 2+ lines, 5x8 dots  
....................  0xc,                     // Display on  
....................  1,                       // Clear display  
....................  6                        // Increment cursor  
....................  };  
....................  
....................  
.................... //-------------------------------------  
.................... void lcd_send_nibble(int8 nibble)  
.................... {  
.................... // Note:  !! converts an integer expression  
.................... // to a boolean (1 or 0).  
....................  output_bit(LCD_DB4, !!(nibble & 1));  
*
1846:  MOVLB  2
1848:  BTFSC  x66.0
184A:  BRA    1850
184C:  BCF    F8C.4
184E:  BRA    1852
1850:  BSF    F8C.4
1852:  BCF    F95.4
....................  output_bit(LCD_DB5, !!(nibble & 2));  
1854:  BTFSC  x66.1
1856:  BRA    185C
1858:  BCF    F8C.2
185A:  BRA    185E
185C:  BSF    F8C.2
185E:  BCF    F95.2
....................  output_bit(LCD_DB6, !!(nibble & 4));     
1860:  BTFSC  x66.2
1862:  BRA    1868
1864:  BCF    F8C.1
1866:  BRA    186A
1868:  BSF    F8C.1
186A:  BCF    F95.1
....................  output_bit(LCD_DB7, !!(nibble & 8));     
186C:  BTFSC  x66.3
186E:  BRA    1874
1870:  BCF    F8C.0
1872:  BRA    1876
1874:  BSF    F8C.0
1876:  BCF    F95.0
....................  
....................  delay_cycles(1);  
1878:  NOP   
....................  output_high(LCD_E);  
187A:  BCF    F95.7
187C:  BSF    F8C.7
....................  delay_us(2);  
187E:  MOVLW  03
1880:  MOVWF  00
1882:  DECFSZ 00,F
1884:  BRA    1882
....................  output_low(LCD_E);  
1886:  BCF    F95.7
1888:  BCF    F8C.7
.................... }  
188A:  MOVLB  0
188C:  RETURN 0
....................  
.................... //-----------------------------------  
.................... // This sub-routine is only called by lcd_read_byte().  
.................... // It's not a stand-alone routine.  For example, the  
.................... // R/W signal is set high by lcd_read_byte() before  
.................... // this routine is called.       
....................  
.................... #ifdef USE_RW_PIN  
.................... int8 lcd_read_nibble(void)  
.................... {  
.................... int8 retval;  
.................... // Create bit variables so that we can easily set  
.................... // individual bits in the retval variable.  
.................... #bit retval_0 = retval.0  
.................... #bit retval_1 = retval.1  
.................... #bit retval_2 = retval.2  
.................... #bit retval_3 = retval.3  
....................  
.................... retval = 0;  
*
17DE:  MOVLB  2
17E0:  CLRF   x67
....................      
.................... output_high(LCD_E);  
17E2:  BCF    F95.7
17E4:  BSF    F8C.7
.................... delay_us(1);  
17E6:  BRA    17E8
17E8:  BRA    17EA
17EA:  NOP   
....................  
.................... retval_0 = input(LCD_DB4);  
17EC:  BSF    F95.4
17EE:  BCF    x67.0
17F0:  BTFSC  F83.4
17F2:  BSF    x67.0
.................... retval_1 = input(LCD_DB5);  
17F4:  BSF    F95.2
17F6:  BCF    x67.1
17F8:  BTFSC  F83.2
17FA:  BSF    x67.1
.................... retval_2 = input(LCD_DB6);  
17FC:  BSF    F95.1
17FE:  BCF    x67.2
1800:  BTFSC  F83.1
1802:  BSF    x67.2
.................... retval_3 = input(LCD_DB7);  
1804:  BSF    F95.0
1806:  BCF    x67.3
1808:  BTFSC  F83.0
180A:  BSF    x67.3
....................    
.................... output_low(LCD_E);  
180C:  BCF    F95.7
180E:  BCF    F8C.7
.................... delay_us(1);  
1810:  BRA    1812
1812:  BRA    1814
1814:  NOP   
....................      
.................... return(retval);     
1816:  MOVFF  267,01
.................... }     
181A:  MOVLB  0
181C:  RETURN 0
.................... #endif  
....................  
.................... //---------------------------------------  
.................... // Read a byte from the LCD and return it.  
....................  
.................... #ifdef USE_RW_PIN  
.................... int8 lcd_read_byte(void)  
.................... {  
.................... int8 low;  
.................... int8 high;  
....................  
.................... output_high(LCD_RW);  
181E:  BCF    F95.5
1820:  BSF    F8C.5
.................... delay_cycles(1);  
1822:  NOP   
....................  
.................... high = lcd_read_nibble();  
1824:  RCALL  17DE
1826:  MOVFF  01,266
....................  
.................... low = lcd_read_nibble();  
182A:  RCALL  17DE
182C:  MOVFF  01,265
....................  
.................... return( (high<<4) | low);  
1830:  MOVLB  2
1832:  SWAPF  x66,W
1834:  MOVWF  00
1836:  MOVLW  F0
1838:  ANDWF  00,F
183A:  MOVF   00,W
183C:  IORWF  x65,W
183E:  MOVWF  01
.................... }  
1840:  MOVLB  0
1842:  GOTO   1894 (RETURN)
.................... #endif  
....................  
.................... //----------------------------------------  
.................... // Send a byte to the LCD.  
.................... void lcd_send_byte(int8 address, int8 n)  
.................... {  
.................... output_low(LCD_RS);  
*
188E:  BCF    F95.6
1890:  BCF    F8C.6
....................  
.................... #ifdef USE_RW_PIN  
.................... while(bit_test(lcd_read_byte(),7)) ;  
1892:  BRA    181E
1894:  MOVFF  01,265
1898:  MOVLB  2
189A:  BTFSS  01.7
189C:  BRA    18A2
189E:  MOVLB  0
18A0:  BRA    1892
.................... #else  
.................... delay_us(60);  
.................... #endif  
....................  
.................... if(address)  
18A2:  MOVF   x63,F
18A4:  BZ    18AC
....................    output_high(LCD_RS);  
18A6:  BCF    F95.6
18A8:  BSF    F8C.6
.................... else  
18AA:  BRA    18B0
....................    output_low(LCD_RS);  
18AC:  BCF    F95.6
18AE:  BCF    F8C.6
....................        
....................  delay_cycles(1);  
18B0:  NOP   
....................  
.................... #ifdef USE_RW_PIN  
.................... output_low(LCD_RW);  
18B2:  BCF    F95.5
18B4:  BCF    F8C.5
.................... delay_cycles(1);  
18B6:  NOP   
.................... #endif  
....................  
.................... output_low(LCD_E);  
18B8:  BCF    F95.7
18BA:  BCF    F8C.7
....................  
.................... lcd_send_nibble(n >> 4);  
18BC:  SWAPF  x64,W
18BE:  MOVWF  x65
18C0:  MOVLW  0F
18C2:  ANDWF  x65,F
18C4:  MOVFF  265,266
18C8:  MOVLB  0
18CA:  RCALL  1846
.................... lcd_send_nibble(n & 0xf);  
18CC:  MOVLB  2
18CE:  MOVF   x64,W
18D0:  ANDLW  0F
18D2:  MOVWF  x65
18D4:  MOVWF  x66
18D6:  MOVLB  0
18D8:  RCALL  1846
.................... }  
18DA:  RETURN 0
.................... //----------------------------  
....................  
.................... void lcd_init(void)  
.................... {  
.................... int8 i;  
....................  
.................... lcd_line = 1;  
*
79FA:  MOVLW  01
79FC:  MOVWF  1A
....................  
.................... output_low(LCD_RS);  
79FE:  BCF    F95.6
7A00:  BCF    F8C.6
....................  
.................... #ifdef USE_RW_PIN  
.................... output_low(LCD_RW);  
7A02:  BCF    F95.5
7A04:  BCF    F8C.5
.................... #endif  
....................  
.................... output_low(LCD_E);  
7A06:  BCF    F95.7
7A08:  BCF    F8C.7
....................  
.................... // Some LCDs require 15 ms minimum delay after  
.................... // power-up.  Others require 30 ms.  I'm going  
.................... // to set it to 35 ms, so it should work with  
.................... // all of them.  
.................... delay_ms(35);           
7A0A:  MOVLW  23
7A0C:  MOVLB  2
7A0E:  MOVWF  x5F
7A10:  MOVLB  0
7A12:  CALL   0D34
....................  
.................... for(i=0 ;i < 3; i++)  
7A16:  MOVLB  1
7A18:  CLRF   xDA
7A1A:  MOVF   xDA,W
7A1C:  SUBLW  02
7A1E:  BNC   7A3E
....................    {  
....................     lcd_send_nibble(0x03);  
7A20:  MOVLW  03
7A22:  MOVLB  2
7A24:  MOVWF  x66
7A26:  MOVLB  0
7A28:  CALL   1846
....................     delay_ms(5);  
7A2C:  MOVLW  05
7A2E:  MOVLB  2
7A30:  MOVWF  x5F
7A32:  MOVLB  0
7A34:  CALL   0D34
....................    }  
7A38:  MOVLB  1
7A3A:  INCF   xDA,F
7A3C:  BRA    7A1A
....................  
.................... lcd_send_nibble(0x02);  
7A3E:  MOVLW  02
7A40:  MOVLB  2
7A42:  MOVWF  x66
7A44:  MOVLB  0
7A46:  CALL   1846
....................  
.................... for(i=0; i < sizeof(LCD_INIT_STRING); i++)  
7A4A:  MOVLB  1
7A4C:  CLRF   xDA
7A4E:  MOVF   xDA,W
7A50:  SUBLW  03
7A52:  BNC   7A74
....................    {  
....................     lcd_send_byte(0, LCD_INIT_STRING[i]);  
7A54:  CLRF   03
7A56:  MOVF   xDA,W
7A58:  MOVLB  0
7A5A:  CALL   00BA
7A5E:  MOVLB  1
7A60:  MOVWF  xDB
7A62:  MOVLB  2
7A64:  CLRF   x63
7A66:  MOVWF  x64
7A68:  MOVLB  0
7A6A:  CALL   188E
....................  
....................     // If the R/W signal is not used, then  
....................     // the busy bit can't be polled.  One of  
....................     // the init commands takes longer than  
....................     // the hard-coded delay of 50 us, so in  
....................     // that case, lets just do a 5 ms delay  
....................     // after all four of them.  
....................     #ifndef USE_RW_PIN  
....................     delay_ms(5);  
....................     #endif  
....................    }  
7A6E:  MOVLB  1
7A70:  INCF   xDA,F
7A72:  BRA    7A4E
....................  
.................... }  
7A74:  MOVLB  0
7A76:  GOTO   7DD8 (RETURN)
....................  
.................... //----------------------------  
....................  
.................... void lcd_gotoxy(int8 x, int8 y)  
.................... {  
.................... int8 address;  
....................  
....................  
.................... switch(y)  
....................   {  
*
18DC:  MOVLB  2
18DE:  MOVF   x60,W
18E0:  XORLW  01
18E2:  MOVLB  0
18E4:  BZ    18F4
18E6:  XORLW  03
18E8:  BZ    18FA
18EA:  XORLW  01
18EC:  BZ    1902
18EE:  XORLW  07
18F0:  BZ    190A
18F2:  BRA    1912
....................    case 1:  
....................      address = LCD_LINE_1_ADDRESS;  
18F4:  MOVLB  2
18F6:  CLRF   x61
....................      break;  
18F8:  BRA    1918
....................  
....................    case 2:  
....................      address = LCD_LINE_2_ADDRESS;  
18FA:  MOVLW  40
18FC:  MOVLB  2
18FE:  MOVWF  x61
....................      break;  
1900:  BRA    1918
....................  
....................    case 3:  
....................      address = LCD_LINE_3_ADDRESS;  
1902:  MOVLW  10
1904:  MOVLB  2
1906:  MOVWF  x61
....................      break;  
1908:  BRA    1918
....................  
....................    case 4:  
....................      address = LCD_LINE_4_ADDRESS;  
190A:  MOVLW  50
190C:  MOVLB  2
190E:  MOVWF  x61
....................      break;  
1910:  BRA    1918
....................  
....................    default:  
....................      address = LCD_LINE_1_ADDRESS;  
1912:  MOVLB  2
1914:  CLRF   x61
....................      break;  
1916:  BRA    1918
....................        
....................   }  
....................  
.................... address += x-1;  
1918:  MOVLW  01
191A:  SUBWF  x5F,W
191C:  ADDWF  x61,F
.................... lcd_send_byte(0, 0x80 | address);  
191E:  MOVF   x61,W
1920:  IORLW  80
1922:  MOVWF  x62
1924:  CLRF   x63
1926:  MOVWF  x64
1928:  MOVLB  0
192A:  RCALL  188E
.................... }  
192C:  RETURN 0
....................  
.................... //-----------------------------  
.................... void lcd_putc(char c)  
.................... {  
....................  switch(c)  
....................    {  
192E:  MOVLB  2
1930:  MOVF   x5E,W
1932:  XORLW  0C
1934:  MOVLB  0
1936:  BZ    1942
1938:  XORLW  06
193A:  BZ    1960
193C:  XORLW  02
193E:  BZ    1972
1940:  BRA    1980
....................     case '\f':  
....................       lcd_send_byte(0,1);  
1942:  MOVLB  2
1944:  CLRF   x63
1946:  MOVLW  01
1948:  MOVWF  x64
194A:  MOVLB  0
194C:  RCALL  188E
....................       lcd_line = 1;  
194E:  MOVLW  01
1950:  MOVWF  1A
....................       delay_ms(2);  
1952:  MOVLW  02
1954:  MOVLB  2
1956:  MOVWF  x5F
1958:  MOVLB  0
195A:  CALL   0D34
....................       break;  
195E:  BRA    1990
....................      
....................     case '\n':  
....................        lcd_gotoxy(1, ++lcd_line);  
1960:  INCF   1A,F
1962:  MOVLW  01
1964:  MOVLB  2
1966:  MOVWF  x5F
1968:  MOVFF  1A,260
196C:  MOVLB  0
196E:  RCALL  18DC
....................        break;  
1970:  BRA    1990
....................      
....................     case '\b':  
....................        lcd_send_byte(0,0x10);  
1972:  MOVLB  2
1974:  CLRF   x63
1976:  MOVLW  10
1978:  MOVWF  x64
197A:  MOVLB  0
197C:  RCALL  188E
....................        break;  
197E:  BRA    1990
....................      
....................     default:  
....................        lcd_send_byte(1,c);  
1980:  MOVLW  01
1982:  MOVLB  2
1984:  MOVWF  x63
1986:  MOVFF  25E,264
198A:  MOVLB  0
198C:  RCALL  188E
....................        break;  
198E:  BRA    1990
....................    }  
.................... }  
1990:  RETURN 0
....................  
.................... //------------------------------  
.................... #ifdef USE_RW_PIN  
.................... char lcd_getc(int8 x, int8 y)  
.................... {  
.................... char value;  
....................  
.................... lcd_gotoxy(x,y);  
....................  
.................... // Wait until busy flag is low.  
.................... while(bit_test(lcd_read_byte(),7));  
....................  
.................... output_high(LCD_RS);  
.................... value = lcd_read_byte();  
.................... output_low(LCD_RS);  
....................  
.................... return(value);  
.................... }  
.................... #endif  
....................  
.................... void lcd_setcursor_vb(short visible, short blink) {  
....................   lcd_send_byte(0, 0xC|(visible<<1)|blink);  
.................... } 
....................  
.................... #include <teclado_adc.c> 
.................... //////////////////////////////////////////////////////////////TECLADO ANALOGICO////////////////////////////////////////////////////// 
.................... int16 valor_adc_leido=0; 
.................... int16 valor_adc_tecla_presionada; 
.................... char tecla; 
.................... int bandera_presionada,i; 
.................... //const int16 valores_adc_teclas[17]={0,308,317,327,337,443,458,484,505,550,572,613,642,695,735,802,863};//valores teoricos 
.................... const int16 valores_adc_teclas[17]={0,308,315,326,335,540,563,601,633,438,454,477,497,27,63,126,176};//valores practicos181 
.................... const char simbolo_tecla[17]={'Z','C','D','E','F','B','3','6','9','A','2','5','8','0','1','4','7'}; 
.................... const int16 tolerancia=5; 
.................... int max_tecla=18; 
.................... const int INIT      = 0; 
.................... const int SUELTA    = 1; 
.................... const int VALIDA    = 2; 
.................... const int PRESIONA  = 3; 
.................... int estado_siguiente_maquina_teclado=0; 
....................  
.................... void tarea_teclado_analogico(void){ 
.................... switch(estado_siguiente_maquina_teclado) 
.................... { 
*
579C:  MOVF   23,W
579E:  ADDLW  FC
57A0:  BTFSC  FD8.0
57A2:  BRA    596E
57A4:  ADDLW  04
57A6:  GOTO   5972
....................  case INIT: 
....................    int i,max=16; 
57AA:  MOVLW  10
57AC:  MOVLB  2
57AE:  MOVWF  x52
....................    setup_adc_ports(AN0|VSS_VDD);  
57B0:  MOVF   FC1,W
57B2:  ANDLW  C0
57B4:  IORLW  0E
57B6:  MOVWF  FC1
....................    setup_adc(ADC_CLOCK_DIV_8); 
57B8:  MOVF   FC0,W
57BA:  ANDLW  C0
57BC:  IORLW  01
57BE:  MOVWF  FC0
57C0:  BSF    FC0.7
57C2:  BSF    FC2.0
....................    enable_interrupts(global); 
57C4:  MOVLW  C0
57C6:  IORWF  FF2,F
....................    bandera_presionada=0; 
57C8:  CLRF   20
....................    estado_siguiente_maquina_teclado=SUELTA; 
57CA:  MOVLW  01
57CC:  MOVWF  23
....................  break; 
57CE:  MOVLB  0
57D0:  BRA    596E
....................  case SUELTA: 
....................    valor_adc_leido=0;  
57D2:  CLRF   1C
57D4:  CLRF   1B
....................    set_adc_channel(0); //habilitacion canal 0 
57D6:  MOVLW  00
57D8:  MOVWF  01
57DA:  MOVF   FC2,W
57DC:  ANDLW  C3
57DE:  IORWF  01,W
57E0:  MOVWF  FC2
....................    delay_ms(2); 
57E2:  MOVLW  02
57E4:  MOVLB  2
57E6:  MOVWF  x5F
57E8:  MOVLB  0
57EA:  CALL   0D34
....................    valor_adc_leido =0; 
57EE:  CLRF   1C
57F0:  CLRF   1B
....................    for(i=1;i<=100;i++) 
57F2:  MOVLW  01
57F4:  MOVLB  2
57F6:  MOVWF  x51
57F8:  MOVF   x51,W
57FA:  SUBLW  64
57FC:  BNC   5832
....................    { 
....................     valor_adc_leido =read_adc()+valor_adc_leido; 
57FE:  BSF    FC2.1
5800:  BTFSC  FC2.1
5802:  BRA    5800
5804:  MOVF   FC3,W
5806:  ADDWF  1B,F
5808:  MOVF   FC4,W
580A:  ADDWFC 1C,F
....................     if (i==100)valor_adc_leido =(valor_adc_leido/i); 
580C:  MOVF   x51,W
580E:  SUBLW  64
5810:  BNZ   582E
5812:  MOVFF  1C,254
5816:  MOVFF  1B,253
581A:  CLRF   x56
581C:  MOVFF  251,255
5820:  MOVLB  0
5822:  RCALL  5756
5824:  MOVFF  02,1C
5828:  MOVFF  01,1B
582C:  MOVLB  2
....................    } 
582E:  INCF   x51,F
5830:  BRA    57F8
....................    max=16; 
5832:  MOVLW  10
5834:  MOVWF  x52
....................    if((valor_adc_leido>10)&&(bandera_presionada==0)) 
5836:  MOVF   1C,F
5838:  BNZ   5840
583A:  MOVF   1B,W
583C:  SUBLW  0A
583E:  BC    5854
5840:  MOVF   20,F
5842:  BNZ   5854
....................    { 
....................     bandera_presionada=1; 
5844:  MOVLW  01
5846:  MOVWF  20
....................     estado_siguiente_maquina_teclado=PRESIONA; 
5848:  MOVLW  03
584A:  MOVWF  23
....................     valor_adc_tecla_presionada=valor_adc_leido; 
584C:  MOVFF  1C,1E
5850:  MOVFF  1B,1D
....................    } 
....................  break; 
5854:  MOVLB  0
5856:  BRA    596E
....................  case PRESIONA: 
....................    set_adc_channel(0); //habilitacion canal 0 
5858:  MOVLW  00
585A:  MOVWF  01
585C:  MOVF   FC2,W
585E:  ANDLW  C3
5860:  IORWF  01,W
5862:  MOVWF  FC2
....................    delay_ms(2); 
5864:  MOVLW  02
5866:  MOVLB  2
5868:  MOVWF  x5F
586A:  MOVLB  0
586C:  CALL   0D34
....................    valor_adc_leido =0; 
5870:  CLRF   1C
5872:  CLRF   1B
....................    for(i=1;i<=100;i++) 
5874:  MOVLW  01
5876:  MOVLB  2
5878:  MOVWF  x51
587A:  MOVF   x51,W
587C:  SUBLW  64
587E:  BNC   58B4
....................    { 
....................     valor_adc_leido =read_adc()+valor_adc_leido; 
5880:  BSF    FC2.1
5882:  BTFSC  FC2.1
5884:  BRA    5882
5886:  MOVF   FC3,W
5888:  ADDWF  1B,F
588A:  MOVF   FC4,W
588C:  ADDWFC 1C,F
....................     if (i==100)valor_adc_leido =(valor_adc_leido/i); 
588E:  MOVF   x51,W
5890:  SUBLW  64
5892:  BNZ   58B0
5894:  MOVFF  1C,254
5898:  MOVFF  1B,253
589C:  CLRF   x56
589E:  MOVFF  251,255
58A2:  MOVLB  0
58A4:  RCALL  5756
58A6:  MOVFF  02,1C
58AA:  MOVFF  01,1B
58AE:  MOVLB  2
....................    } 
58B0:  INCF   x51,F
58B2:  BRA    587A
....................    if((bandera_presionada==1)&&(valor_adc_leido<10)) 
58B4:  DECFSZ 20,W
58B6:  BRA    58C6
58B8:  MOVF   1C,F
58BA:  BNZ   58C6
58BC:  MOVF   1B,W
58BE:  SUBLW  09
58C0:  BNC   58C6
....................    estado_siguiente_maquina_teclado=VALIDA; 
58C2:  MOVLW  02
58C4:  MOVWF  23
....................  break; 
58C6:  MOVLB  0
58C8:  BRA    596E
....................  case VALIDA: 
....................    max=max_tecla; 
58CA:  MOVFF  22,252
....................    for(i=0;i<=max;i++) 
58CE:  MOVLB  2
58D0:  CLRF   x51
58D2:  MOVF   x51,W
58D4:  SUBWF  x52,W
58D6:  BNC   595A
....................    { 
....................     if((valor_adc_tecla_presionada>(valores_adc_teclas[i]-tolerancia)) && (valor_adc_tecla_presionada<(valores_adc_teclas[i]+tolerancia))) 
58D8:  BCF    FD8.0
58DA:  RLCF   x51,W
58DC:  CLRF   03
58DE:  MOVLB  0
58E0:  CALL   00CE
58E4:  TBLRD*+
58E6:  MOVFF  FF5,03
58EA:  MOVLB  2
58EC:  MOVWF  x53
58EE:  MOVFF  03,254
58F2:  MOVLW  05
58F4:  SUBWF  x53,W
58F6:  MOVWF  00
58F8:  MOVLW  00
58FA:  SUBWFB 03,W
58FC:  MOVWF  03
58FE:  MOVFF  00,01
5902:  MOVF   03,W
5904:  SUBWF  1E,W
5906:  BNC   5956
5908:  BNZ   5910
590A:  MOVF   1D,W
590C:  SUBWF  01,W
590E:  BC    5956
5910:  BCF    FD8.0
5912:  RLCF   x51,W
5914:  CLRF   03
5916:  MOVLB  0
5918:  CALL   00CE
591C:  TBLRD*+
591E:  MOVFF  FF5,03
5922:  MOVLB  2
5924:  MOVWF  x53
5926:  MOVFF  03,254
592A:  MOVLW  05
592C:  ADDWF  x53,W
592E:  MOVWF  01
5930:  MOVLW  00
5932:  ADDWFC 03,W
5934:  MOVWF  03
5936:  MOVF   1E,W
5938:  SUBWF  03,W
593A:  BNC   5956
593C:  BNZ   5944
593E:  MOVF   01,W
5940:  SUBWF  1D,W
5942:  BC    5956
....................     {  
....................      max=i; 
5944:  MOVFF  251,252
....................      tecla=simbolo_tecla[i];  
5948:  CLRF   03
594A:  MOVF   x51,W
594C:  MOVLB  0
594E:  CALL   0100
5952:  MOVWF  1F
5954:  MOVLB  2
....................     }   
....................    } 
5956:  INCF   x51,F
5958:  BRA    58D2
....................    if (i>=max_tecla) tecla='Z';    
595A:  MOVF   22,W
595C:  SUBWF  x51,W
595E:  BNC   5964
5960:  MOVLW  5A
5962:  MOVWF  1F
....................    bandera_presionada=0; 
5964:  CLRF   20
....................    estado_siguiente_maquina_teclado=SUELTA; 
5966:  MOVLW  01
5968:  MOVWF  23
....................  break; 
596A:  MOVLB  0
596C:  BRA    596E
.................... } 
.................... } 
596E:  GOTO   5996 (RETURN)
....................  
.................... #include <_ds1307.c> 
.................... /////////////////////////////////////////////////////////////////////////////////////// 
.................... ///                               DS1307.C                                           /// 
.................... ///                     Driver for Real Time Clock                                   /// 
.................... ///                     modified by Redpic 08/2006                                   /// 
.................... ///                  http://picmania.garcia-cuervo.com                               /// 
.................... ///                                                                                  /// 
.................... /// void ds1307_init(val)                                                            /// 
.................... ///                  - Enable oscillator without clearing the seconds register       /// 
.................... ///                    used when PIC loses power and DS1307 run from 3V BAT          /// 
.................... ///                  - Config Control Register with next parameters:                 /// 
.................... ///                     DS1307_ALL_DISABLED          All disabled                    /// 
.................... ///                     DS1307_OUT_ON_DISABLED_HIHG  Out to Hight on Disable Out     /// 
.................... ///                     DS1307_OUT_ENABLED           Out Enabled                     /// 
.................... ///                     DS1307_OUT_1_HZ              Freq. Out to 1 Hz               /// 
.................... ///                     DS1307_OUT_4_KHZ             Freq. Out to 4.096 Khz          /// 
.................... ///                     DS1307_OUT_8_KHZ             Freq. Out to 8.192 Khz          /// 
.................... ///                     DS1307_OUT_32_KHZ            Freq. Out to 32.768 Khz         /// 
.................... ///                                                                                  /// 
.................... ///                     Example init:                                                /// 
.................... ///                     ds1307_init(DS1307_ALL_DISABLED);                            /// 
.................... ///                     ds1307_init(DS1307_OUT_ENABLED | DS1307_OUT_1_HZ);           /// 
.................... ///                                                                                  /// 
.................... /// void ds1307_set_date_time(day,mth,year,dow,hour,min,sec) - Set the date/time     /// 
.................... ///                                                                                  /// 
.................... /// void ds1307_get_date(day,mth,year,dow)                   - Get the date          /// 
.................... ///                                                                                  /// 
.................... /// void ds1307_get_time(hr,min,sec)                         - Get the time          /// 
.................... ///                                                                                  /// 
.................... /// char ds1307_read_nvram_byte(char addr)                   - Read byte in address  /// 
.................... ///                                                                                  /// 
.................... /// void ds1307_write_nvram_byte(char addr, char value)      - Write byte in address /// 
.................... ///                                                                                  /// 
.................... /// void ds1307_get_day_of_week(char* ptr)                   - Get string Day Of Week/// 
.................... ///                                                                                  /// 
.................... /// If defined USE_INTERRUPTS all functions disable Global Interrupts on starts and  /// 
.................... ///                           enable Global on ends else usar can do it hiself       /// 
.................... ///                                                                                  /// 
.................... /////////////////////////////////////////////////////////////////////////////////////// 
....................  
.................... #ifndef RTC_SDA 
.................... #define RTC_SDA  PIN_C4 
.................... #define RTC_SCL  PIN_C3 
.................... #endif 
....................  
.................... #use i2c(master, sda=RTC_SDA, scl=RTC_SCL) 
*
1C4C:  MOVLW  08
1C4E:  MOVWF  01
1C50:  MOVLW  05
1C52:  MOVWF  00
1C54:  DECFSZ 00,F
1C56:  BRA    1C54
1C58:  BCF    F8A.1
1C5A:  BCF    F93.1
1C5C:  MOVLW  06
1C5E:  MOVWF  00
1C60:  DECFSZ 00,F
1C62:  BRA    1C60
1C64:  MOVLB  2
1C66:  RLCF   x59,F
1C68:  BCF    F8A.0
1C6A:  BTFSC  FD8.0
1C6C:  BSF    F93.0
1C6E:  BTFSS  FD8.0
1C70:  BCF    F93.0
1C72:  BSF    F93.1
1C74:  BTFSS  F81.1
1C76:  BRA    1C74
1C78:  DECFSZ 01,F
1C7A:  BRA    1C7E
1C7C:  BRA    1C82
1C7E:  MOVLB  0
1C80:  BRA    1C50
1C82:  MOVLW  05
1C84:  MOVWF  00
1C86:  DECFSZ 00,F
1C88:  BRA    1C86
1C8A:  BCF    F8A.1
1C8C:  BCF    F93.1
1C8E:  NOP   
1C90:  BSF    F93.0
1C92:  MOVLW  06
1C94:  MOVWF  00
1C96:  DECFSZ 00,F
1C98:  BRA    1C96
1C9A:  MOVLW  06
1C9C:  MOVWF  00
1C9E:  DECFSZ 00,F
1CA0:  BRA    1C9E
1CA2:  BSF    F93.1
1CA4:  BTFSS  F81.1
1CA6:  BRA    1CA4
1CA8:  CLRF   01
1CAA:  MOVLW  06
1CAC:  MOVWF  00
1CAE:  DECFSZ 00,F
1CB0:  BRA    1CAE
1CB2:  BTFSC  F81.0
1CB4:  BSF    01.0
1CB6:  BCF    F8A.1
1CB8:  BCF    F93.1
1CBA:  BCF    F8A.0
1CBC:  BCF    F93.0
1CBE:  MOVLB  0
1CC0:  RETURN 0
*
59B0:  MOVLW  08
59B2:  MOVLB  2
59B4:  MOVWF  x56
59B6:  MOVFF  00,257
59BA:  BSF    F93.0
59BC:  MOVLW  06
59BE:  MOVWF  00
59C0:  DECFSZ 00,F
59C2:  BRA    59C0
59C4:  BSF    F93.1
59C6:  BTFSS  F81.1
59C8:  BRA    59C6
59CA:  BTFSC  F81.0
59CC:  BSF    FD8.0
59CE:  BTFSS  F81.0
59D0:  BCF    FD8.0
59D2:  RLCF   01,F
59D4:  MOVLW  05
59D6:  MOVWF  00
59D8:  DECFSZ 00,F
59DA:  BRA    59D8
59DC:  BCF    F93.1
59DE:  BCF    F8A.1
59E0:  DECFSZ x56,F
59E2:  BRA    59BA
59E4:  BSF    F93.0
59E6:  MOVLW  06
59E8:  MOVWF  00
59EA:  DECFSZ 00,F
59EC:  BRA    59EA
59EE:  BCF    F8A.0
59F0:  MOVF   x57,W
59F2:  BTFSS  FD8.2
59F4:  BCF    F93.0
59F6:  NOP   
59F8:  BSF    F93.1
59FA:  BTFSS  F81.1
59FC:  BRA    59FA
59FE:  MOVLW  05
5A00:  MOVWF  00
5A02:  DECFSZ 00,F
5A04:  BRA    5A02
5A06:  BCF    F8A.1
5A08:  BCF    F93.1
5A0A:  MOVLW  06
5A0C:  MOVWF  00
5A0E:  DECFSZ 00,F
5A10:  BRA    5A0E
5A12:  BCF    F8A.0
5A14:  BCF    F93.0
5A16:  MOVLB  0
5A18:  RETURN 0
....................  
.................... #define DS1307_ALL_DISABLED         0b00000000 // All disabled 
.................... #define DS1307_OUT_ON_DISABLED_HIHG 0b10000000 // Out to Hight on Disable Out 
.................... #define DS1307_OUT_ENABLED          0b00010000 // Out Enabled 
.................... #define DS1307_OUT_1_HZ             0b00000000 // Freq. Out to 1 Hz 
.................... #define DS1307_OUT_4_KHZ            0b00000001 // Freq. Out to 4.096 Khz 
.................... #define DS1307_OUT_8_KHZ            0b00000010 // Freq. Out to 8.192 Khz 
.................... #define DS1307_OUT_32_KHZ           0b00000011 // Freq. Out to 32.768 Khz 
....................  
.................... #define Start_user_address_nvram    0x08 
.................... #define End_user_address_nvram      0x3f 
....................  
.................... char days_of_week[7][11]={"Lunes\0","Martes\0","Miércoles\0","Jueves\0","Viernes\0","Sábado\0","Domingo\0"}; 
....................  
.................... byte ds1307_bin2bcd(byte binary_value); 
.................... byte ds1307_bcd2bin(byte bcd_value); 
....................  
.................... void ds1307_init(int val){ 
*
7A82:  MOVLB  1
7A84:  CLRF   xDB
....................  
....................    byte seconds = 0; 
....................  
.................... #ifndef USE_INTERRUPTS 
....................    disable_interrupts(global); 
7A86:  BCF    FF2.6
7A88:  BCF    FF2.7
7A8A:  BTFSC  FF2.7
7A8C:  BRA    7A88
.................... #endif 
....................  
....................    i2c_start(); 
7A8E:  BSF    F93.0
7A90:  MOVLW  05
7A92:  MOVWF  00
7A94:  DECFSZ 00,F
7A96:  BRA    7A94
7A98:  BSF    F93.1
7A9A:  MOVLW  06
7A9C:  MOVWF  00
7A9E:  DECFSZ 00,F
7AA0:  BRA    7A9E
7AA2:  BCF    F8A.0
7AA4:  BCF    F93.0
7AA6:  MOVLW  05
7AA8:  MOVWF  00
7AAA:  DECFSZ 00,F
7AAC:  BRA    7AAA
7AAE:  BCF    F8A.1
7AB0:  BCF    F93.1
....................    i2c_write(0xD0); 
7AB2:  MOVLW  D0
7AB4:  MOVLB  2
7AB6:  MOVWF  x59
7AB8:  MOVLB  0
7ABA:  CALL   1C4C
....................    i2c_write(0x00); 
7ABE:  MOVLB  2
7AC0:  CLRF   x59
7AC2:  MOVLB  0
7AC4:  CALL   1C4C
....................    i2c_start(); 
7AC8:  BSF    F93.0
7ACA:  MOVLW  05
7ACC:  MOVWF  00
7ACE:  DECFSZ 00,F
7AD0:  BRA    7ACE
7AD2:  BSF    F93.1
7AD4:  MOVLW  06
7AD6:  MOVWF  00
7AD8:  DECFSZ 00,F
7ADA:  BRA    7AD8
7ADC:  BTFSS  F81.1
7ADE:  BRA    7ADC
7AE0:  BCF    F8A.0
7AE2:  BCF    F93.0
7AE4:  MOVLW  05
7AE6:  MOVWF  00
7AE8:  DECFSZ 00,F
7AEA:  BRA    7AE8
7AEC:  BCF    F8A.1
7AEE:  BCF    F93.1
....................    i2c_write(0xD1); 
7AF0:  MOVLW  D1
7AF2:  MOVLB  2
7AF4:  MOVWF  x59
7AF6:  MOVLB  0
7AF8:  CALL   1C4C
....................    seconds = ds1307_bcd2bin(i2c_read(0)); 
7AFC:  CLRF   00
7AFE:  CALL   59B0
7B02:  MOVFF  01,1DC
7B06:  MOVFF  01,256
7B0A:  CALL   5A1A
7B0E:  MOVFF  01,1DB
....................    i2c_stop(); 
7B12:  BCF    F93.0
7B14:  NOP   
7B16:  BSF    F93.1
7B18:  BTFSS  F81.1
7B1A:  BRA    7B18
7B1C:  MOVLW  05
7B1E:  MOVWF  00
7B20:  DECFSZ 00,F
7B22:  BRA    7B20
7B24:  BRA    7B26
7B26:  NOP   
7B28:  BSF    F93.0
7B2A:  MOVLW  05
7B2C:  MOVWF  00
7B2E:  DECFSZ 00,F
7B30:  BRA    7B2E
....................    seconds &= 0x7F; 
7B32:  MOVLB  1
7B34:  BCF    xDB.7
....................  
....................    delay_us(3); 
7B36:  MOVLW  04
7B38:  MOVWF  00
7B3A:  DECFSZ 00,F
7B3C:  BRA    7B3A
7B3E:  BRA    7B40
....................  
....................    i2c_start(); 
7B40:  BSF    F93.0
7B42:  MOVLW  05
7B44:  MOVWF  00
7B46:  DECFSZ 00,F
7B48:  BRA    7B46
7B4A:  BSF    F93.1
7B4C:  MOVLW  06
7B4E:  MOVWF  00
7B50:  DECFSZ 00,F
7B52:  BRA    7B50
7B54:  BCF    F8A.0
7B56:  BCF    F93.0
7B58:  MOVLW  05
7B5A:  MOVWF  00
7B5C:  DECFSZ 00,F
7B5E:  BRA    7B5C
7B60:  BCF    F8A.1
7B62:  BCF    F93.1
....................    i2c_write(0xD0); 
7B64:  MOVLW  D0
7B66:  MOVLB  2
7B68:  MOVWF  x59
7B6A:  MOVLB  0
7B6C:  CALL   1C4C
....................    i2c_write(0x00); 
7B70:  MOVLB  2
7B72:  CLRF   x59
7B74:  MOVLB  0
7B76:  CALL   1C4C
....................    i2c_write(ds1307_bin2bcd(seconds)); 
7B7A:  MOVFF  1DB,258
7B7E:  CALL   1CC2
7B82:  MOVFF  01,1DC
7B86:  MOVFF  01,259
7B8A:  CALL   1C4C
....................    i2c_start(); 
7B8E:  BSF    F93.0
7B90:  MOVLW  05
7B92:  MOVWF  00
7B94:  DECFSZ 00,F
7B96:  BRA    7B94
7B98:  BSF    F93.1
7B9A:  MOVLW  06
7B9C:  MOVWF  00
7B9E:  DECFSZ 00,F
7BA0:  BRA    7B9E
7BA2:  BTFSS  F81.1
7BA4:  BRA    7BA2
7BA6:  BCF    F8A.0
7BA8:  BCF    F93.0
7BAA:  MOVLW  05
7BAC:  MOVWF  00
7BAE:  DECFSZ 00,F
7BB0:  BRA    7BAE
7BB2:  BCF    F8A.1
7BB4:  BCF    F93.1
....................    i2c_write(0xD0); 
7BB6:  MOVLW  D0
7BB8:  MOVLB  2
7BBA:  MOVWF  x59
7BBC:  MOVLB  0
7BBE:  CALL   1C4C
....................    i2c_write(0x07); 
7BC2:  MOVLW  07
7BC4:  MOVLB  2
7BC6:  MOVWF  x59
7BC8:  MOVLB  0
7BCA:  CALL   1C4C
....................    i2c_write(val); 
7BCE:  MOVFF  1DA,259
7BD2:  CALL   1C4C
....................    i2c_stop(); 
7BD6:  BCF    F93.0
7BD8:  NOP   
7BDA:  BSF    F93.1
7BDC:  BTFSS  F81.1
7BDE:  BRA    7BDC
7BE0:  MOVLW  05
7BE2:  MOVWF  00
7BE4:  DECFSZ 00,F
7BE6:  BRA    7BE4
7BE8:  BRA    7BEA
7BEA:  NOP   
7BEC:  BSF    F93.0
7BEE:  MOVLW  05
7BF0:  MOVWF  00
7BF2:  DECFSZ 00,F
7BF4:  BRA    7BF2
....................  
.................... #ifndef USE_INTERRUPTS 
....................    enable_interrupts(global); 
7BF6:  MOVLW  C0
7BF8:  IORWF  FF2,F
.................... #endif 
....................  
.................... } 
7BFA:  GOTO   7E10 (RETURN)
....................  
.................... void ds1307_set_date_time(byte day, byte mth, byte year, byte dow, byte hr, byte min, byte sec){ 
....................  
.................... #ifndef USE_INTERRUPTS 
....................    disable_interrupts(global); 
*
1CEA:  BCF    FF2.6
1CEC:  BCF    FF2.7
1CEE:  BTFSC  FF2.7
1CF0:  BRA    1CEC
.................... #endif 
....................  
....................   sec &= 0x7F; 
1CF2:  MOVLB  2
1CF4:  BCF    x57.7
....................   hr &= 0x3F; 
1CF6:  MOVLW  3F
1CF8:  ANDWF  x55,F
....................  
....................   i2c_start(); 
1CFA:  BSF    F93.0
1CFC:  MOVLW  05
1CFE:  MOVWF  00
1D00:  DECFSZ 00,F
1D02:  BRA    1D00
1D04:  BSF    F93.1
1D06:  MOVLW  06
1D08:  MOVWF  00
1D0A:  DECFSZ 00,F
1D0C:  BRA    1D0A
1D0E:  BCF    F8A.0
1D10:  BCF    F93.0
1D12:  MOVLW  05
1D14:  MOVWF  00
1D16:  DECFSZ 00,F
1D18:  BRA    1D16
1D1A:  BCF    F8A.1
1D1C:  BCF    F93.1
....................   i2c_write(0xD0); 
1D1E:  MOVLW  D0
1D20:  MOVWF  x59
1D22:  MOVLB  0
1D24:  RCALL  1C4C
....................   i2c_write(0x00); 
1D26:  MOVLB  2
1D28:  CLRF   x59
1D2A:  MOVLB  0
1D2C:  RCALL  1C4C
....................   i2c_write(ds1307_bin2bcd(sec)); 
1D2E:  MOVFF  257,258
1D32:  RCALL  1CC2
1D34:  MOVFF  01,258
1D38:  MOVFF  01,259
1D3C:  RCALL  1C4C
....................   i2c_write(ds1307_bin2bcd(min)); 
1D3E:  MOVFF  256,258
1D42:  RCALL  1CC2
1D44:  MOVFF  01,258
1D48:  MOVFF  01,259
1D4C:  RCALL  1C4C
....................   i2c_write(ds1307_bin2bcd(hr)); 
1D4E:  MOVFF  255,258
1D52:  RCALL  1CC2
1D54:  MOVFF  01,258
1D58:  MOVFF  01,259
1D5C:  RCALL  1C4C
....................   i2c_write(ds1307_bin2bcd(dow)); 
1D5E:  MOVFF  254,258
1D62:  RCALL  1CC2
1D64:  MOVFF  01,258
1D68:  MOVFF  01,259
1D6C:  RCALL  1C4C
....................   i2c_write(ds1307_bin2bcd(day)); 
1D6E:  MOVFF  251,258
1D72:  RCALL  1CC2
1D74:  MOVFF  01,258
1D78:  MOVFF  01,259
1D7C:  RCALL  1C4C
....................   i2c_write(ds1307_bin2bcd(mth)); 
1D7E:  MOVFF  252,258
1D82:  RCALL  1CC2
1D84:  MOVFF  01,258
1D88:  MOVFF  01,259
1D8C:  RCALL  1C4C
....................   i2c_write(ds1307_bin2bcd(year)); 
1D8E:  MOVFF  253,258
1D92:  RCALL  1CC2
1D94:  MOVFF  01,258
1D98:  MOVFF  01,259
1D9C:  RCALL  1C4C
....................   i2c_stop(); 
1D9E:  BCF    F93.0
1DA0:  NOP   
1DA2:  BSF    F93.1
1DA4:  BTFSS  F81.1
1DA6:  BRA    1DA4
1DA8:  MOVLW  05
1DAA:  MOVWF  00
1DAC:  DECFSZ 00,F
1DAE:  BRA    1DAC
1DB0:  BRA    1DB2
1DB2:  NOP   
1DB4:  BSF    F93.0
1DB6:  MOVLW  05
1DB8:  MOVWF  00
1DBA:  DECFSZ 00,F
1DBC:  BRA    1DBA
....................  
.................... #ifndef USE_INTERRUPTS 
....................    enable_interrupts(global); 
1DBE:  MOVLW  C0
1DC0:  IORWF  FF2,F
.................... #endif 
....................  
.................... } 
1DC2:  GOTO   2784 (RETURN)
....................  
.................... void ds1307_get_date(byte &day, byte &mth, byte &year, byte &dow){ 
....................  
.................... #ifndef USE_INTERRUPTS 
....................    disable_interrupts(global); 
*
5B3C:  BCF    FF2.6
5B3E:  BCF    FF2.7
5B40:  BTFSC  FF2.7
5B42:  BRA    5B3E
.................... #endif 
....................  
....................   i2c_start(); 
5B44:  BSF    F93.0
5B46:  MOVLW  05
5B48:  MOVWF  00
5B4A:  DECFSZ 00,F
5B4C:  BRA    5B4A
5B4E:  BSF    F93.1
5B50:  MOVLW  06
5B52:  MOVWF  00
5B54:  DECFSZ 00,F
5B56:  BRA    5B54
5B58:  BCF    F8A.0
5B5A:  BCF    F93.0
5B5C:  MOVLW  05
5B5E:  MOVWF  00
5B60:  DECFSZ 00,F
5B62:  BRA    5B60
5B64:  BCF    F8A.1
5B66:  BCF    F93.1
....................   i2c_write(0xD0); 
5B68:  MOVLW  D0
5B6A:  MOVLB  2
5B6C:  MOVWF  x59
5B6E:  MOVLB  0
5B70:  CALL   1C4C
....................   i2c_write(0x03); 
5B74:  MOVLW  03
5B76:  MOVLB  2
5B78:  MOVWF  x59
5B7A:  MOVLB  0
5B7C:  CALL   1C4C
....................   i2c_start(); 
5B80:  BSF    F93.0
5B82:  MOVLW  05
5B84:  MOVWF  00
5B86:  DECFSZ 00,F
5B88:  BRA    5B86
5B8A:  BSF    F93.1
5B8C:  MOVLW  06
5B8E:  MOVWF  00
5B90:  DECFSZ 00,F
5B92:  BRA    5B90
5B94:  BTFSS  F81.1
5B96:  BRA    5B94
5B98:  BCF    F8A.0
5B9A:  BCF    F93.0
5B9C:  MOVLW  05
5B9E:  MOVWF  00
5BA0:  DECFSZ 00,F
5BA2:  BRA    5BA0
5BA4:  BCF    F8A.1
5BA6:  BCF    F93.1
....................   i2c_write(0xD1); 
5BA8:  MOVLW  D1
5BAA:  MOVLB  2
5BAC:  MOVWF  x59
5BAE:  MOVLB  0
5BB0:  CALL   1C4C
....................   dow  = ds1307_bcd2bin(i2c_read() & 0x7f); 
5BB4:  MOVLW  01
5BB6:  MOVWF  00
5BB8:  RCALL  59B0
5BBA:  MOVF   01,W
5BBC:  ANDLW  7F
5BBE:  MOVLB  2
5BC0:  MOVWF  x51
5BC2:  MOVWF  x56
5BC4:  MOVLB  0
5BC6:  RCALL  5A1A
5BC8:  MOVFF  01,7F
....................   day  = ds1307_bcd2bin(i2c_read() & 0x3f); 
5BCC:  MOVLW  01
5BCE:  MOVWF  00
5BD0:  RCALL  59B0
5BD2:  MOVF   01,W
5BD4:  ANDLW  3F
5BD6:  MOVLB  2
5BD8:  MOVWF  x51
5BDA:  MOVWF  x56
5BDC:  MOVLB  0
5BDE:  RCALL  5A1A
5BE0:  MOVFF  01,7C
....................   mth  = ds1307_bcd2bin(i2c_read() & 0x1f); 
5BE4:  MOVLW  01
5BE6:  MOVWF  00
5BE8:  RCALL  59B0
5BEA:  MOVF   01,W
5BEC:  ANDLW  1F
5BEE:  MOVLB  2
5BF0:  MOVWF  x51
5BF2:  MOVWF  x56
5BF4:  MOVLB  0
5BF6:  RCALL  5A1A
5BF8:  MOVFF  01,7D
....................   year = ds1307_bcd2bin(i2c_read(0)); 
5BFC:  CLRF   00
5BFE:  RCALL  59B0
5C00:  MOVFF  01,251
5C04:  MOVFF  01,256
5C08:  RCALL  5A1A
5C0A:  MOVFF  01,7E
....................   i2c_stop(); 
5C0E:  BCF    F93.0
5C10:  NOP   
5C12:  BSF    F93.1
5C14:  BTFSS  F81.1
5C16:  BRA    5C14
5C18:  MOVLW  05
5C1A:  MOVWF  00
5C1C:  DECFSZ 00,F
5C1E:  BRA    5C1C
5C20:  BRA    5C22
5C22:  NOP   
5C24:  BSF    F93.0
5C26:  MOVLW  05
5C28:  MOVWF  00
5C2A:  DECFSZ 00,F
5C2C:  BRA    5C2A
....................  
.................... #ifndef USE_INTERRUPTS 
....................    enable_interrupts(global); 
5C2E:  MOVLW  C0
5C30:  IORWF  FF2,F
.................... #endif 
....................  
.................... } 
....................  
.................... void ds1307_get_time(byte &hr, byte &min, byte &sec){ 
....................  
.................... #ifndef USE_INTERRUPTS 
....................    disable_interrupts(global); 
*
5A50:  BCF    FF2.6
5A52:  BCF    FF2.7
5A54:  BTFSC  FF2.7
5A56:  BRA    5A52
.................... #endif 
....................  
....................   i2c_start(); 
5A58:  BSF    F93.0
5A5A:  MOVLW  05
5A5C:  MOVWF  00
5A5E:  DECFSZ 00,F
5A60:  BRA    5A5E
5A62:  BSF    F93.1
5A64:  MOVLW  06
5A66:  MOVWF  00
5A68:  DECFSZ 00,F
5A6A:  BRA    5A68
5A6C:  BCF    F8A.0
5A6E:  BCF    F93.0
5A70:  MOVLW  05
5A72:  MOVWF  00
5A74:  DECFSZ 00,F
5A76:  BRA    5A74
5A78:  BCF    F8A.1
5A7A:  BCF    F93.1
....................   i2c_write(0xD0); 
5A7C:  MOVLW  D0
5A7E:  MOVLB  2
5A80:  MOVWF  x59
5A82:  MOVLB  0
5A84:  CALL   1C4C
....................   i2c_write(0x00); 
5A88:  MOVLB  2
5A8A:  CLRF   x59
5A8C:  MOVLB  0
5A8E:  CALL   1C4C
....................   i2c_start(); 
5A92:  BSF    F93.0
5A94:  MOVLW  05
5A96:  MOVWF  00
5A98:  DECFSZ 00,F
5A9A:  BRA    5A98
5A9C:  BSF    F93.1
5A9E:  MOVLW  06
5AA0:  MOVWF  00
5AA2:  DECFSZ 00,F
5AA4:  BRA    5AA2
5AA6:  BTFSS  F81.1
5AA8:  BRA    5AA6
5AAA:  BCF    F8A.0
5AAC:  BCF    F93.0
5AAE:  MOVLW  05
5AB0:  MOVWF  00
5AB2:  DECFSZ 00,F
5AB4:  BRA    5AB2
5AB6:  BCF    F8A.1
5AB8:  BCF    F93.1
....................   i2c_write(0xD1); 
5ABA:  MOVLW  D1
5ABC:  MOVLB  2
5ABE:  MOVWF  x59
5AC0:  MOVLB  0
5AC2:  CALL   1C4C
....................   sec = ds1307_bcd2bin(i2c_read() & 0x7f); 
5AC6:  MOVLW  01
5AC8:  MOVWF  00
5ACA:  RCALL  59B0
5ACC:  MOVF   01,W
5ACE:  ANDLW  7F
5AD0:  MOVLB  2
5AD2:  MOVWF  x51
5AD4:  MOVWF  x56
5AD6:  MOVLB  0
5AD8:  RCALL  5A1A
5ADA:  MOVFF  01,79
....................   min = ds1307_bcd2bin(i2c_read() & 0x7f); 
5ADE:  MOVLW  01
5AE0:  MOVWF  00
5AE2:  RCALL  59B0
5AE4:  MOVF   01,W
5AE6:  ANDLW  7F
5AE8:  MOVLB  2
5AEA:  MOVWF  x51
5AEC:  MOVWF  x56
5AEE:  MOVLB  0
5AF0:  RCALL  5A1A
5AF2:  MOVFF  01,7A
....................   hr  = ds1307_bcd2bin(i2c_read(0) & 0x3f); 
5AF6:  CLRF   00
5AF8:  RCALL  59B0
5AFA:  MOVF   01,W
5AFC:  ANDLW  3F
5AFE:  MOVLB  2
5B00:  MOVWF  x51
5B02:  MOVWF  x56
5B04:  MOVLB  0
5B06:  RCALL  5A1A
5B08:  MOVFF  01,7B
....................   i2c_stop(); 
5B0C:  BCF    F93.0
5B0E:  NOP   
5B10:  BSF    F93.1
5B12:  BTFSS  F81.1
5B14:  BRA    5B12
5B16:  MOVLW  05
5B18:  MOVWF  00
5B1A:  DECFSZ 00,F
5B1C:  BRA    5B1A
5B1E:  BRA    5B20
5B20:  NOP   
5B22:  BSF    F93.0
5B24:  MOVLW  05
5B26:  MOVWF  00
5B28:  DECFSZ 00,F
5B2A:  BRA    5B28
....................  
.................... #ifndef USE_INTERRUPTS 
....................    enable_interrupts(global); 
5B2C:  MOVLW  C0
5B2E:  IORWF  FF2,F
.................... #endif 
....................  
.................... } 
....................  
....................  
.................... char ds1307_read_nvram_byte(char addr){ 
....................  
....................    char retval; 
....................  
.................... #ifndef USE_INTERRUPTS 
....................    disable_interrupts(global); 
.................... #endif 
....................  
....................    i2c_start(); 
....................    i2c_write(0xD0); 
....................    i2c_write(addr); 
....................  
....................    i2c_start(); 
....................    i2c_write(0xD1); 
....................    retval = i2c_read(0); 
....................    i2c_stop(); 
....................  
....................    return(retval); 
....................  
.................... #ifndef USE_INTERRUPTS 
....................    enable_interrupts(global); 
.................... #endif 
....................  
.................... } 
....................  
.................... void ds1307_write_nvram_byte(char addr, char value){ 
....................  
.................... #ifndef USE_INTERRUPTS 
....................    disable_interrupts(global); 
.................... #endif 
....................  
....................    i2c_start(); 
....................    i2c_write(0xD0); 
....................    i2c_write(addr); 
....................    i2c_write(value); 
....................    i2c_stop(); 
....................  
.................... #ifndef USE_INTERRUPTS 
....................    enable_interrupts(global); 
.................... #endif 
....................  
.................... } 
....................  
.................... void ds1307_get_day_of_week(char* ptr){ 
....................  
....................    byte lday; 
....................    byte lmonth; 
....................    byte lyr; 
....................    byte ldow; 
....................    ds1307_get_date(lday,lmonth,lyr,ldow); 
....................    sprintf(ptr,"%s",days_of_week[ldow]); 
.................... } 
....................  
.................... /////////////////////////////////////////////////////////////////////////////// 
....................  
.................... byte ds1307_bin2bcd(byte binary_value){ 
....................  
....................   byte temp; 
....................   byte retval; 
....................  
....................   temp = binary_value; 
*
1CC2:  MOVFF  258,259
....................   retval = 0; 
1CC6:  MOVLB  2
1CC8:  CLRF   x5A
....................   while(1){ 
....................     if(temp >= 10){ 
1CCA:  MOVF   x59,W
1CCC:  SUBLW  09
1CCE:  BC    1CDA
....................       temp -= 10; 
1CD0:  MOVLW  0A
1CD2:  SUBWF  x59,F
....................       retval += 0x10; 
1CD4:  MOVLW  10
1CD6:  ADDWF  x5A,F
....................     }else{ 
1CD8:  BRA    1CE0
....................       retval += temp; 
1CDA:  MOVF   x59,W
1CDC:  ADDWF  x5A,F
....................       break; 
1CDE:  BRA    1CE2
....................     } 
....................   } 
1CE0:  BRA    1CCA
....................   return(retval); 
1CE2:  MOVFF  25A,01
.................... } 
1CE6:  MOVLB  0
1CE8:  RETURN 0
....................  
.................... byte ds1307_bcd2bin(byte bcd_value){ 
....................  
....................   byte temp; 
....................  
....................   temp = bcd_value; 
*
5A1A:  MOVFF  256,257
....................   temp >>= 1; 
5A1E:  BCF    FD8.0
5A20:  MOVLB  2
5A22:  RRCF   x57,F
....................   temp &= 0x78; 
5A24:  MOVLW  78
5A26:  ANDWF  x57,F
....................   return(temp + (temp >> 2) + (bcd_value & 0x0f)); 
5A28:  RRCF   x57,W
5A2A:  MOVWF  00
5A2C:  RRCF   00,F
5A2E:  MOVLW  3F
5A30:  ANDWF  00,F
5A32:  MOVF   00,W
5A34:  ADDWF  x57,W
5A36:  MOVWF  x58
5A38:  MOVF   x56,W
5A3A:  ANDLW  0F
5A3C:  ADDWF  x58,W
5A3E:  MOVWF  01
.................... } 
5A40:  MOVLB  0
5A42:  RETURN 0
....................  
.................... /////////////////////////////////////////////////////////////////////////////// 
....................  
.................... #include <string.h> 
.................... //////////////////////////////////////////////////////////////////////////// 
.................... ////        (C) Copyright 1996,2008 Custom Computer Services            //// 
.................... //// This source code may only be used by licensed users of the CCS C   //// 
.................... //// compiler.  This source code may only be distributed to other       //// 
.................... //// licensed users of the CCS C compiler.  No other use, reproduction  //// 
.................... //// or distribution is permitted without written permission.           //// 
.................... //// Derivative programs created using this software in object code     //// 
.................... //// form are not restricted in any way.                                //// 
.................... //////////////////////////////////////////////////////////////////////////// 
....................  
.................... #ifndef _STRING 
.................... #define _STRING 
.................... #include <stddef.h> 
.................... /////////////////////////////////////////////////////////////////////////// 
.................... ////        (C) Copyright 1996,2003 Custom Computer Services           //// 
.................... //// This source code may only be used by licensed users of the CCS C  //// 
.................... //// compiler.  This source code may only be distributed to other      //// 
.................... //// licensed users of the CCS C compiler.  No other use, reproduction //// 
.................... //// or distribution is permitted without written permission.          //// 
.................... //// Derivative programs created using this software in object code    //// 
.................... //// form are not restricted in any way.                               //// 
.................... /////////////////////////////////////////////////////////////////////////// 
....................  
.................... #ifndef _STDDEF 
....................  
.................... #define _STDDEF 
....................  
.................... #if sizeof(unsigned int8 *)==1 
.................... #define ptrdiff_t unsigned int8 
.................... #else 
.................... #define ptrdiff_t unsigned int16 
.................... #endif 
....................  
.................... #if defined(__PCB__) 
.................... #define size_t unsigned int8 
.................... #else 
.................... #define size_t unsigned int16 
.................... #endif 
.................... #define wchar_t char 
.................... #define NULL 0 
....................  
.................... #define offsetof(s,f) (offsetofbit(s,f)/8) 
....................  
.................... #endif 
....................  
.................... #include <ctype.h> 
.................... //////////////////////////////////////////////////////////////////////////// 
.................... ////        (C) Copyright 1996,2003 Custom Computer Services            //// 
.................... //// This source code may only be used by licensed users of the CCS C   //// 
.................... //// compiler.  This source code may only be distributed to other       //// 
.................... //// licensed users of the CCS C compiler.  No other use, reproduction  //// 
.................... //// or distribution is permitted without written permission.           //// 
.................... //// Derivative programs created using this software in object code     //// 
.................... //// form are not restricted in any way.                                //// 
.................... //////////////////////////////////////////////////////////////////////////// 
....................  
.................... #ifndef _CTYPE 
.................... #define _CTYPE 
....................  
.................... #define islower(x)  isamong(x,"abcdefghijklmnopqrstuvwxyz") 
.................... #define isupper(x)  isamong(x,"ABCDEFGHIJKLMNOPQRSTUVWXYZ") 
.................... #define isalnum(x)  isamong(x,"0123456789ABCDEFGHIJKLMNOPQRSTUVWXYZabcdefghijklmnopqrstuvwxyz") 
.................... #define isalpha(x)  isamong(x,"ABCDEFGHIJKLMNOPQRSTUVWXYZabcdefghijklmnopqrstuvwxyz") 
.................... #define isdigit(x)  isamong(x,"0123456789") 
.................... #define isspace(x)  ((x)==' ') 
.................... #define isxdigit(x) isamong(x,"0123456789ABCDEFabcdef") 
.................... #define iscntrl(x)  ((x)<' ') 
.................... #define isprint(x)  ((x)>=' ') 
.................... #define isgraph(x)  ((x)>' ') 
.................... #define ispunct(x)  (((x)>' ')&&!isalnum(x)) 
....................  
.................... #endif 
....................  
....................  
....................  
....................  
....................  
.................... ////////////////////////////////////////////// 
.................... //// Uncomment the following define to    //// 
.................... //// allow some functions to use a        //// 
.................... //// quicker algorithm, but use more ROM  //// 
.................... ////                                      //// 
.................... //// #define FASTER_BUT_MORE_ROM          //// 
.................... ////////////////////////////////////////////// 
....................  
....................  
....................  
.................... /*Copying functions*/ 
.................... /* standard template: 
....................    void *memmove(void *s1, void *s2, size_t n). 
....................    Copies max of n characters safely (not following ending '\0') 
....................    from s2 in s1; if s2 has less than n characters, appends 0 */ 
....................  
.................... char *memmove(void *s1,char *s2,size_t n) 
.................... { 
....................    char *sc1; 
....................    char *sc2; 
....................    sc1=s1; 
....................    sc2=s2; 
....................    if(sc2<sc1 && sc1 <sc2 +n) 
....................       for(sc1+=n,sc2+=n;0<n;--n) 
....................          *--sc1=*--sc2; 
....................    else 
....................       for(;0<n;--n) 
....................          *sc1++=*sc2++; 
....................   return s1; 
....................   } 
....................  
.................... /* Standard template: char *strcpy(char *s1, const char *s2) 
....................    copies the string s2 including the null character to s1. 
....................    This is a compiler built in to handle the different address 
....................    spaces */ 
....................  
.................... #define strcopy strcpy 
....................  
.................... /* standard template: 
....................    char *strncpy(char *s1, const char *s2, size_t n). 
....................    Copies max of n characters (not following ending '\0') 
....................    from s2 in s1; if s2 has less than n characters, appends 0 */ 
....................  
.................... char *strncpy(char *s1, char *s2, size_t n) 
.................... { 
....................   char *s; 
....................  
....................   for (s = s1; n > 0 && *s2 != '\0'; n--) 
....................      *s++ = *s2++; 
....................   for (; n > 0; n--) 
....................      *s++ = '\0'; 
....................  
....................   return(s1); 
.................... } 
.................... /***********************************************************/ 
....................  
.................... /*concatenation functions*/ 
.................... /* standard template: char *strcat(char *s1, const char *s2) 
.................... appends s2 to s1*/ 
....................  
.................... char *strcat(char *s1, char *s2) 
.................... { 
....................    char *s; 
....................  
....................    for (s = s1; *s != '\0'; ++s); 
*
0436:  MOVFF  252,256
043A:  MOVFF  251,255
043E:  MOVFF  256,03
0442:  MOVLB  2
0444:  MOVFF  255,FE9
0448:  MOVFF  256,FEA
044C:  MOVF   FEF,F
044E:  BZ    045C
0450:  INCF   x55,F
0452:  BTFSC  FD8.2
0454:  INCF   x56,F
0456:  MOVLB  0
0458:  BRA    043E
045A:  MOVLB  2
....................    while(*s2 != '\0') 
....................    { 
045C:  MOVFF  254,03
0460:  MOVFF  253,FE9
0464:  MOVFF  254,FEA
0468:  MOVF   FEF,F
046A:  BZ    0492
....................       *s = *s2; 
046C:  MOVFF  253,FE9
0470:  MOVFF  254,FEA
0474:  MOVFF  FEF,259
0478:  MOVFF  256,FEA
047C:  MOVFF  255,FE9
0480:  MOVFF  259,FEF
....................       ++s; 
0484:  INCF   x55,F
0486:  BTFSC  FD8.2
0488:  INCF   x56,F
....................       ++s2; 
048A:  INCF   x53,F
048C:  BTFSC  FD8.2
048E:  INCF   x54,F
....................    } 
0490:  BRA    045C
....................  
....................    *s = '\0'; 
0492:  MOVFF  255,FE9
0496:  MOVFF  256,FEA
049A:  CLRF   FEF
....................    return(s1); 
049C:  MOVFF  251,01
04A0:  MOVFF  252,02
.................... } 
04A4:  MOVLB  0
04A6:  RETURN 0
.................... /* standard template: char *strncat(char *s1, char *s2,size_t n) 
.................... appends not more than n characters from s2 to s1*/ 
....................  
.................... char *strncat(char *s1, char *s2, size_t n) 
.................... { 
....................    char *s; 
....................  
....................    for (s = s1; *s != '\0'; ++s); 
....................    while(*s2 != '\0' && 0<n) 
....................    { 
....................       *s = *s2; 
....................       ++s; 
....................       ++s2; 
....................       --n; 
....................    } 
....................  
....................    *s = '\0'; 
....................    return(s1); 
.................... } 
....................  
.................... /***********************************************************/ 
....................  
....................  
.................... /*comparison functions*/ 
.................... /* standard template: signed int memcmp(void *s1, void *s2). 
....................    Compares s1 & s2; returns -1 if s1<s2, 0 if s1=s2, 1 if s1>s2 */ 
....................  
.................... signed int8 memcmp(void * s1,char *s2,size_t n) 
.................... { 
.................... char *su1, *su2; 
.................... for(su1=s1, su2=s2; 0<n; ++su1, ++su2, --n) 
.................... { 
....................    if(*su1!=*su2) 
....................       return ((*su1<*su2)?-1:+1); 
.................... } 
.................... return 0; 
.................... } 
....................  
.................... /* standard template: int strcmp(const char *s1, const char *s2). 
....................    Compares s1 & s2; returns -1 if s1<s2, 0 if s1=s2, 1 if s1>s2 */ 
....................  
.................... signed int8 strcmp(char *s1, char *s2) 
.................... { 
....................    for (; *s1 == *s2; s1++, s2++) 
....................       if (*s1 == '\0') 
....................          return(0); 
....................    return((*s1 < *s2) ? -1: 1); 
.................... } 
.................... /* standard template: int strcoll(const char *s1, const char *s2). 
....................    Compares s1 & s2; returns -1 if s1<s2, 0 if s1=s2, 1 if s1>s2 */ 
....................  
.................... signed int8 strcoll(char *s1, char *s2) 
.................... { 
....................    for (; *s1 == *s2; s1++, s2++) 
....................       if (*s1 == '\0') 
....................          return(0); 
....................    return((*s1 < *s2) ? -1: 1); 
.................... } 
....................  
.................... /* standard template: 
....................    int strncmp(const char *s1, const char *s2, size_t n). 
....................    Compares max of n characters (not following 0) from s1 to s2; 
....................    returns same as strcmp */ 
....................  
.................... signed int8 strncmp(char *s1, char *s2, size_t n) 
.................... { 
....................    for (; n > 0; s1++, s2++, n--) 
....................       if (*s1 != *s2) 
....................          return((*s1 <*s2) ? -1: 1); 
....................       else if (*s1 == '\0') 
....................          return(0); 
....................    return(0); 
.................... } 
.................... /* standard template: 
....................    int strxfrm(const char *s1, const char *s2, size_t n). 
....................    transforms maximum of n characters from s2 and places them into s1*/ 
.................... size_t strxfrm(char *s1, char *s2, size_t n) 
.................... { 
....................   char *s; 
....................   unsigned int8 n1; 
....................   n1=n; 
....................   for (s = s1; n > 0 && *s2 != '\0'; n--) 
....................      *s++ = *s2++; 
....................   for (; n > 0; n--) 
....................      *s++ = '\0'; 
....................  
....................   return(n1); 
.................... } 
....................  
....................  
....................  
....................  
....................  
.................... /***********************************************************/ 
.................... /*Search functions*/ 
.................... /* standard template: void *memchr(const char *s, int c). 
....................    Finds first occurrence of c in n characters of s */ 
....................  
.................... char *memchr(void *s,unsigned int8 c,size_t n) 
.................... { 
....................    char uc; 
....................    char *su; 
....................    uc=c; 
....................    for(su=s;0<n;++su,--n) 
....................       if(*su==uc) 
....................       return su; 
....................    return NULL; 
.................... } 
....................  
.................... /* standard template: char *strchr(const char *s, int c). 
....................    Finds first occurrence of c in s */ 
....................  
.................... char *strchr(char *s, unsigned int8 c) 
.................... { 
....................    for (; *s != c; s++) 
....................       if (*s == '\0') 
....................          return(0); 
....................    return(s); 
.................... } 
.................... /* standard template: 
....................    size_t strcspn(const char *s1, const char *s2). 
....................    Computes length of max initial segment of s1 that 
....................    consists entirely of characters NOT from s2*/ 
....................  
.................... unsigned int8  strcspn(char *s1, char *s2) 
.................... { 
....................    char *sc1, *sc2; 
....................  
....................    for (sc1 = s1; *sc1 != 0; sc1++) 
....................       for (sc2 = s2; *sc2 != 0; sc2++) 
....................          if (*sc1 == *sc2) 
....................             return(sc1 - s1); 
....................    return(sc1 - s1); 
.................... } 
.................... /* standard template: 
....................    char *strpbrk(const char *s1, const char *s2). 
....................    Locates first occurence of any character from s2 in s1; 
....................    returns s1 if s2 is empty string */ 
....................  
.................... char *strpbrk(char *s1, char *s2) 
.................... { 
....................    char *sc1, *sc2; 
....................  
....................    for (sc1 = s1; *sc1 != 0; sc1++) 
....................       for (sc2 = s2; *sc2 != 0; sc2++) 
....................          if (*sc1 == *sc2) 
....................             return(sc1); 
....................    return(0); 
.................... } 
....................  
....................  
.................... /* standard template: char *strrchr(const char *s, int c). 
....................    Finds last occurrence of c in s */ 
....................  
.................... char *strrchr(char *s, unsigned int8 c) 
.................... { 
....................    char *p; 
....................  
....................    for (p = 0; ; s++) 
....................    { 
....................       if (*s == c) 
....................          p = s; 
....................       if (*s == '\0') 
....................          return(p); 
....................    } 
.................... } 
.................... /* computes length of max initial segment of s1 consisting 
....................    entirely of characters from s2 */ 
....................  
.................... unsigned int8  strspn(char *s1, char *s2) 
.................... { 
....................    char *sc1, *sc2; 
....................  
....................    for (sc1 = s1; *sc1 != 0; sc1++) 
....................       for (sc2 = s2; ; sc2++) 
....................     if (*sc2 == '\0') 
....................        return(sc1 - s1); 
....................          else if (*sc1 == *sc2) 
....................             break; 
....................    return(sc1 - s1); 
.................... } 
.................... /* standard template: 
....................    char *strstr(const char *s1, const char *s2); 
....................    Locates first occurence of character sequence s2 in s1; 
....................    returns 0 if s2 is empty string 
....................  
....................    Uncomment #define FASTER_BUT_MORE_ROM at the top of the 
....................    file to use the faster algorithm */ 
.................... char *strstr(char *s1, char *s2) 
.................... { 
....................    char *s, *t; 
....................  
....................    #ifdef FASTER_BUT_MORE_ROM 
....................    if (*s2 == '\0') 
....................          return(s1); 
....................    #endif 
....................  
....................    while (*s1) 
....................    { 
....................       for(s = s1, t = s2; *t && (*s == *t); ++s, ++t); 
....................  
....................       if (*t == '\0') 
....................          return s1; 
....................       ++s1; 
....................       #ifdef FASTER_BUT_MORE_ROM 
....................          while(*s1 != '\0' && *s1 != *s2) 
....................             ++s1; 
....................       #endif 
....................    } 
....................    return 0; 
.................... } 
....................  
.................... /* standard template: char *strtok(char *s1, const char *s2). 
....................  
....................    Finds next token in s1 delimited by a character from separator 
....................    string s2 (which can be different from call to call).  First call 
....................    starts at beginning of s1 searching for first character NOT 
....................    contained in s2; returns 0 if none is found. 
....................    If one is found, it is the start of first token (return value). 
....................    Function then searches from there for a character contained in s2. 
....................    If none is found, current token extends to end of s1, and subsequent 
....................    searches for a token will return 0.  If one is found, it is 
....................    overwritten by '\0', which terminates current token.  Function saves 
....................    pointer to following character from which next search will start. 
....................    Each subsequent call, with 0 as first argument, starts searching 
....................    from saved pointer */ 
....................  
.................... char *strtok(char *s1, char *s2) 
.................... { 
....................    char *beg, *end; 
....................    static char *save; 
....................  
....................    beg = (s1)? s1: save; 
....................    beg += strspn(beg, s2); 
....................    if (*beg == '\0') 
....................    { 
....................       *save = ' '; 
....................       return(0); 
....................    } 
....................    end = strpbrk(beg, s2); 
....................    if (*end != '\0') 
....................    { 
....................       *end = '\0'; 
....................       end++; 
....................    } 
....................    save = end; 
....................    return(beg); 
.................... } 
....................  
.................... /*****************************************************************/ 
.................... /*Miscellaneous functions*/ 
.................... /* standard template 
.................... maps error number in errnum to an error message string 
.................... Returns: Pointer to string 
.................... */ 
.................... #ifdef _ERRNO 
.................... char * strerror(unsigned int8 errnum) 
.................... { 
.................... static char s[13]; 
.................... switch( errnum) 
.................... { 
.................... case 0: 
....................    strcpy(s,"no errors"); 
....................    return s; 
.................... case EDOM : 
....................    strcpy(s,"domain error"); 
....................    return s; 
.................... case ERANGE: 
....................    strcpy(s,"range error"); 
....................    return s; 
.................... } 
.................... } 
.................... #ENDIF 
.................... /* standard template: size_t strlen(const char *s). 
....................    Computes length of s1 (preceding terminating 0) */ 
....................  
.................... unsigned int8 strlen(char *s) 
.................... { 
....................    char *sc; 
....................  
....................    for (sc = s; *sc != 0; sc++); 
....................    return(sc - s); 
.................... } 
....................  
.................... /* standard template: size_t stricmp(const char *s1, const char *s2). 
....................    Compares s1 to s2 ignoring case (upper vs. lower) */ 
....................  
.................... signed int8 stricmp(char *s1, char *s2) 
.................... { 
....................  for(; *s1==*s2||(isalpha(*s1)&&isalpha(*s2)&&(*s1==*s2+32||*s2==*s1+32)); 
....................     s1++, s2++) 
....................     if (*s1 == '\0') 
....................        return(0); 
....................  return((*s1 < *s2) ? -1: 1); 
.................... } 
....................  
....................  
.................... /* standard template: char *strlwr(char *s). 
....................    Replaces uppercase letters by lowercase; 
....................    returns pointer to new string s */ 
....................  
.................... char *strlwr(char *s) 
.................... { 
....................    char *p; 
....................  
....................    for (p = s; *p != '\0'; p++) 
....................       if (*p >= 'A' && *p <='Z') 
....................          *p += 'a' - 'A'; 
....................    return(s); 
.................... } 
....................  
.................... /* standard template: char *strupr(char *s). 
....................    Replaces lowercase letters by upercase; 
....................    returns pointer to new string s */ 
....................  
.................... char *strupr(char *s) 
.................... { 
....................    char *p; 
....................  
....................    for (p = s; *p != '\0'; p++) 
....................       if (*p >= 'a' && *p <='z') 
....................          *p -= 'a' - 'A'; 
....................    return(s); 
.................... } 
....................  
....................  
.................... /************************************************************/ 
....................  
....................  
.................... #endif 
....................  
.................... #include <stdlib.h> 
.................... /////////////////////////////////////////////////////////////////////////// 
.................... ////        (C) Copyright 1996,2007 Custom Computer Services           //// 
.................... //// This source code may only be used by licensed users of the CCS C  //// 
.................... //// compiler.  This source code may only be distributed to other      //// 
.................... //// licensed users of the CCS C compiler.  No other use, reproduction //// 
.................... //// or distribution is permitted without written permission.          //// 
.................... //// Derivative programs created using this software in object code    //// 
.................... //// form are not restricted in any way.                               //// 
.................... /////////////////////////////////////////////////////////////////////////// 
....................  
.................... #ifndef _STDLIB 
.................... #define _STDLIB 
....................  
.................... //--------------------------------------------------------------------------- 
.................... // Definitions and types 
.................... //--------------------------------------------------------------------------- 
....................  
.................... #ifndef RAND_MAX 
.................... #define RAND_MAX  32767    // The value of which is the maximum value 
....................                            // ... returned by the rand function 
.................... #endif 
....................  
....................  
.................... #IF (sizeof(int16*)>1) 
.................... #DEFINE LONG_POINTERS 1 
.................... #ELSE  
.................... #DEFINE LONG_POINTERS 0 
.................... #ENDIF 
....................  
.................... typedef struct { 
....................    signed int quot; 
....................    signed int rem; 
.................... } div_t; 
....................  
.................... typedef struct { 
....................    signed long quot; 
....................    signed long rem; 
.................... } ldiv_t; 
....................  
.................... #include <stddef.h> 
.................... /////////////////////////////////////////////////////////////////////////// 
.................... ////        (C) Copyright 1996,2003 Custom Computer Services           //// 
.................... //// This source code may only be used by licensed users of the CCS C  //// 
.................... //// compiler.  This source code may only be distributed to other      //// 
.................... //// licensed users of the CCS C compiler.  No other use, reproduction //// 
.................... //// or distribution is permitted without written permission.          //// 
.................... //// Derivative programs created using this software in object code    //// 
.................... //// form are not restricted in any way.                               //// 
.................... /////////////////////////////////////////////////////////////////////////// 
....................  
.................... #ifndef _STDDEF 
....................  
.................... #define _STDDEF 
....................  
.................... #if sizeof(unsigned int8 *)==1 
.................... #define ptrdiff_t unsigned int8 
.................... #else 
.................... #define ptrdiff_t unsigned int16 
.................... #endif 
....................  
.................... #if defined(__PCB__) 
.................... #define size_t unsigned int8 
.................... #else 
.................... #define size_t unsigned int16 
.................... #endif 
.................... #define wchar_t char 
.................... #define NULL 0 
....................  
.................... #define offsetof(s,f) (offsetofbit(s,f)/8) 
....................  
.................... #endif 
....................  
....................  
.................... //--------------------------------------------------------------------------- 
.................... // String conversion functions 
.................... //--------------------------------------------------------------------------- 
....................  
.................... /* Standard template: signed int  atoi(char * s) 
....................  * converts the initial portion of the string s to a signed int 
....................  * returns the converted value if any, 0 otherwise 
....................  */ 
.................... signed int atoi(char *s); 
....................  
.................... /* Syntax: signed int32  atoi32(char * s) 
....................    converts the initial portion of the string s to a signed int32 
....................    returns the converted value if any, 0 otherwise*/ 
.................... #if (sizeof(long)==4) 
....................  #define atoi32(s) atol(s) 
.................... #else  
....................  signed int32 atoi32(char *s); 
.................... #endif 
....................  
.................... #if defined(__PCD__) 
.................... // The following functions only work on the 24 bit compiler 
.................... // for the 30F, 33F, 24F and 24H parts 
.................... /* Syntax: signed int48  atoi48(char * s) 
....................    converts the initial portion of the string s to a signed int48 
....................    returns the converted value if any, 0 otherwise*/ 
....................     
.................... signed int48 atoi48(char *s); 
....................  
.................... /* Syntax: signed int64  atoi64(char * s) 
....................    converts the initial portion of the string s to a signed int64 
....................    returns the converted value if any, 0 otherwise*/ 
.................... signed int64 atoi64(char *s); 
.................... #endif 
....................  
.................... /* Syntax: char *  itoa(signed int32 num, int8 base, char * s) 
....................    converts the signed int32 to a string and 
....................    returns the converted value if any, 0 otherwise*/ 
.................... char * itoa(signed int32 num, unsigned int base, char * s); 
....................  
.................... /* Standard template: signed int16  atol(char * s) 
....................  * converts the initial portion of the string s to a signed int16 
....................  * returns the converted value if any, 0 otherwise 
....................  */ 
.................... signed long atol(char *s); 
....................  
.................... /* Standard template: int16 strtoul(char * s,char *endptr,signed int base) 
....................  * converts the initial portion of the string s, represented as an 
....................  * integral value of radix base  to a signed long. 
....................  * Returns the converted value if any, 0 otherwise 
....................  * the final string is returned in the endptr, if endptr is not null 
....................  */ 
.................... signed long strtol(char *s,char *endptr, signed int base); 
....................  
.................... /* Standard template: int16 strtoul(char * s,char *endptr,signed int base) 
....................  * converts the initial portion of the string s, represented as an 
....................  * integral value of radix base to a unsigned long. 
....................  * returns the converted value if any, 0 otherwise 
....................  * the final string is returned in the endptr, if endptr is not null 
....................  */ 
.................... unsigned long strtoul(char *s,char *endptr, signed int base); 
....................  
.................... /* Standart template: float strtof(char * s,char *endptr) 
....................                       float48 strtof48(char *s,char *endptr); 
....................                       float64 strtod(char *s,char *endptr); 
....................  * converts the initial portion of the string s to a float32, float48 or float64, 
....................  * returns the converted value if any, 0 otherwise 
....................  * the final string is returned in the endptr, if endptr is not null                    
.................... */ 
.................... float strtof(char *s,char *endptr); 
.................... #if defined(__PCD__) 
.................... float48 strtof48(char *s,char *endptr); 
.................... float64 strtod(char *s,char *endptr); 
.................... #else 
.................... //provided for compatibility 
.................... #define strtof48(s, e) strtof(s, e) 
.................... #define strtod(s, e) strtof(s, e) 
.................... #endif 
....................  
.................... /* Standard template: float32 atof(char * s) 
....................  * converts the initial portion of the string s to a float. 
....................  * returns the converted value if any, 0 otherwise 
....................  */ 
.................... #define atof(s)   strtof(s, 0) 
....................  
.................... #if defined(__PCD__) 
.................... // The following functions only work on the 24 bit compiler 
.................... // for the 30F, 33F, 24F and 24H parts 
....................  
.................... /* Standard template: float48 atof48(char * s) 
....................  * converts the initial portion of the string s to a float. 
....................  * returns the converted value if any, 0 otherwise 
....................  */ 
.................... #define atof48(s) strtof48(s, 0) 
....................  
.................... /* Standard template: float64 atof64(char * s) 
....................  * converts the initial portion of the string s to a float. 
....................  * returns the converted value if any, 0 otherwise 
....................  */ 
.................... #define atof64(s) strtod(s, 0) 
.................... #endif 
....................  
.................... /* Standard template: float32 atoe(char * s) 
....................  * converts the initial portion of the string s to a float. 
....................  * returns the converted value if any, 0 otherwise 
....................  * also handles E format numbers 
....................  */ 
.................... #if !defined(__PCD__) 
.................... float atoe(char * s); 
.................... #endif 
....................  
.................... #if defined(__PCD__) 
.................... float32 atoe(char * s); 
.................... #endif 
....................  
.................... //--------------------------------------------------------------------------- 
.................... // Pseudo-random sequence generation functions 
.................... //--------------------------------------------------------------------------- 
....................  
.................... /* The rand function computes a sequence of pseudo-random integers in 
....................  * the range 0 to RAND_MAX 
....................  * 
....................  * Parameters: 
....................  *       (none) 
....................  * 
....................  * Returns: 
....................  *       The pseudo-random integer 
....................  */ 
.................... unsigned int16 rand(void); 
....................  
.................... /* The srand function uses the argument as a seed for a new sequence of 
....................  * pseudo-random numbers to be returned by subsequent calls to rand. 
....................  * 
....................  * Parameters: 
....................  *       [in] seed: The seed value to start from. You might need to pass 
....................  * 
....................  * Returns: 
....................  *       (none) 
....................  * 
....................  * Remarks 
....................  *          The srand function sets the starting point for generating 
....................  *       a series of pseudorandom integers. To reinitialize the 
....................  *       generator, use 1 as the seed argument. Any other value for 
....................  *       seed sets the generator to a random starting point. rand 
....................  *       retrieves the pseudorandom numbers that are generated. 
....................  *       Calling rand before any call to srand generates the same 
....................  *       sequence as calling srand with seed passed as 1. 
....................  *          Usually, you need to pass a time here from outer source 
....................  *       so that the numbers will be different every time you run. 
....................  */ 
.................... void srand(unsigned int32 seed); 
....................  
.................... //--------------------------------------------------------------------------- 
.................... // Memory management functions 
.................... //--------------------------------------------------------------------------- 
....................  
.................... // Comming soon 
....................  
.................... //--------------------------------------------------------------------------- 
.................... // Communication with the environment 
.................... //--------------------------------------------------------------------------- 
....................  
.................... /* The function returns 0 always 
....................  */ 
.................... signed int8 system(char *string); 
....................  
.................... //--------------------------------------------------------------------------- 
.................... // Searching and sorting utilities 
.................... //--------------------------------------------------------------------------- 
....................  
.................... /* Performs a binary search of a sorted array.. 
....................  * 
....................  * Parameters: 
....................  *       [in] key: Object to search for 
....................  *       [in] base: Pointer to base of search data 
....................  *       [in] num: Number of elements 
....................  *       [in] width: Width of elements 
....................  *       [in] compare: Function that compares two elements 
....................  * 
....................  * Returns: 
....................  *       bsearch returns a pointer to an occurrence of key in the array pointed 
....................  *       to by base. If key is not found, the function returns NULL. If the 
....................  *       array is not in order or contains duplicate records with identical keys, 
....................  *       the result is unpredictable. 
....................  */ 
.................... //void *bsearch(const void *key, const void *base, size_t num, size_t width, 
.................... //              int (*compare)(const void *, const void *)); 
....................  
.................... /* Performs the shell-metzner sort (not the quick sort algorithm). The contents 
....................  * of the array are sorted into ascending order according to a comparison 
....................  * function pointed to by compar. 
....................  * 
....................  * Parameters: 
....................  *       [in] base: Pointer to base of search data 
....................  *       [in] num: Number of elements 
....................  *       [in] width: Width of elements 
....................  *       [in] compare: Function that compares two elements 
....................  * 
....................  * Returns: 
....................  *       (none) 
....................  */ 
.................... //void *qsort(const void *base, size_t num, size_t width, 
.................... //              int (*compare)(const void *, const void *)); 
....................  
.................... //--------------------------------------------------------------------------- 
.................... // Integer arithmetic functions 
.................... //--------------------------------------------------------------------------- 
....................  
.................... #define labs abs 
....................  
.................... div_t div(signed int numer, signed int denom); 
.................... ldiv_t ldiv(signed long numer, signed long denom); 
....................  
.................... //--------------------------------------------------------------------------- 
.................... // Multibyte character functions 
.................... //--------------------------------------------------------------------------- 
....................  
.................... // Not supported 
....................  
.................... //--------------------------------------------------------------------------- 
.................... // Multibyte string functions 
.................... //--------------------------------------------------------------------------- 
....................  
.................... // Not supported 
....................  
....................  
.................... //--------------------------------------------------------------------------- 
.................... // Internal implementation 
.................... //--------------------------------------------------------------------------- 
....................  
.................... #include <stddef.h> 
.................... /////////////////////////////////////////////////////////////////////////// 
.................... ////        (C) Copyright 1996,2003 Custom Computer Services           //// 
.................... //// This source code may only be used by licensed users of the CCS C  //// 
.................... //// compiler.  This source code may only be distributed to other      //// 
.................... //// licensed users of the CCS C compiler.  No other use, reproduction //// 
.................... //// or distribution is permitted without written permission.          //// 
.................... //// Derivative programs created using this software in object code    //// 
.................... //// form are not restricted in any way.                               //// 
.................... /////////////////////////////////////////////////////////////////////////// 
....................  
.................... #ifndef _STDDEF 
....................  
.................... #define _STDDEF 
....................  
.................... #if sizeof(unsigned int8 *)==1 
.................... #define ptrdiff_t unsigned int8 
.................... #else 
.................... #define ptrdiff_t unsigned int16 
.................... #endif 
....................  
.................... #if defined(__PCB__) 
.................... #define size_t unsigned int8 
.................... #else 
.................... #define size_t unsigned int16 
.................... #endif 
.................... #define wchar_t char 
.................... #define NULL 0 
....................  
.................... #define offsetof(s,f) (offsetofbit(s,f)/8) 
....................  
.................... #endif 
....................  
.................... #include <string.h> 
.................... //////////////////////////////////////////////////////////////////////////// 
.................... ////        (C) Copyright 1996,2008 Custom Computer Services            //// 
.................... //// This source code may only be used by licensed users of the CCS C   //// 
.................... //// compiler.  This source code may only be distributed to other       //// 
.................... //// licensed users of the CCS C compiler.  No other use, reproduction  //// 
.................... //// or distribution is permitted without written permission.           //// 
.................... //// Derivative programs created using this software in object code     //// 
.................... //// form are not restricted in any way.                                //// 
.................... //////////////////////////////////////////////////////////////////////////// 
....................  
.................... #ifndef _STRING 
.................... #define _STRING 
.................... #include <stddef.h> 
.................... #include <ctype.h> 
....................  
....................  
....................  
.................... ////////////////////////////////////////////// 
.................... //// Uncomment the following define to    //// 
.................... //// allow some functions to use a        //// 
.................... //// quicker algorithm, but use more ROM  //// 
.................... ////                                      //// 
.................... //// #define FASTER_BUT_MORE_ROM          //// 
.................... ////////////////////////////////////////////// 
....................  
....................  
....................  
.................... /*Copying functions*/ 
.................... /* standard template: 
....................    void *memmove(void *s1, void *s2, size_t n). 
....................    Copies max of n characters safely (not following ending '\0') 
....................    from s2 in s1; if s2 has less than n characters, appends 0 */ 
....................  
.................... char *memmove(void *s1,char *s2,size_t n) 
.................... { 
....................    char *sc1; 
....................    char *sc2; 
....................    sc1=s1; 
....................    sc2=s2; 
....................    if(sc2<sc1 && sc1 <sc2 +n) 
....................       for(sc1+=n,sc2+=n;0<n;--n) 
....................          *--sc1=*--sc2; 
....................    else 
....................       for(;0<n;--n) 
....................          *sc1++=*sc2++; 
....................   return s1; 
....................   } 
....................  
.................... /* Standard template: char *strcpy(char *s1, const char *s2) 
....................    copies the string s2 including the null character to s1. 
....................    This is a compiler built in to handle the different address 
....................    spaces */ 
....................  
.................... #define strcopy strcpy 
....................  
.................... /* standard template: 
....................    char *strncpy(char *s1, const char *s2, size_t n). 
....................    Copies max of n characters (not following ending '\0') 
....................    from s2 in s1; if s2 has less than n characters, appends 0 */ 
....................  
.................... char *strncpy(char *s1, char *s2, size_t n) 
.................... { 
....................   char *s; 
....................  
....................   for (s = s1; n > 0 && *s2 != '\0'; n--) 
....................      *s++ = *s2++; 
....................   for (; n > 0; n--) 
....................      *s++ = '\0'; 
....................  
....................   return(s1); 
.................... } 
.................... /***********************************************************/ 
....................  
.................... /*concatenation functions*/ 
.................... /* standard template: char *strcat(char *s1, const char *s2) 
.................... appends s2 to s1*/ 
....................  
.................... char *strcat(char *s1, char *s2) 
.................... { 
....................    char *s; 
....................  
....................    for (s = s1; *s != '\0'; ++s); 
....................    while(*s2 != '\0') 
....................    { 
....................       *s = *s2; 
....................       ++s; 
....................       ++s2; 
....................    } 
....................  
....................    *s = '\0'; 
....................    return(s1); 
.................... } 
.................... /* standard template: char *strncat(char *s1, char *s2,size_t n) 
.................... appends not more than n characters from s2 to s1*/ 
....................  
.................... char *strncat(char *s1, char *s2, size_t n) 
.................... { 
....................    char *s; 
....................  
....................    for (s = s1; *s != '\0'; ++s); 
....................    while(*s2 != '\0' && 0<n) 
....................    { 
....................       *s = *s2; 
....................       ++s; 
....................       ++s2; 
....................       --n; 
....................    } 
....................  
....................    *s = '\0'; 
....................    return(s1); 
.................... } 
....................  
.................... /***********************************************************/ 
....................  
....................  
.................... /*comparison functions*/ 
.................... /* standard template: signed int memcmp(void *s1, void *s2). 
....................    Compares s1 & s2; returns -1 if s1<s2, 0 if s1=s2, 1 if s1>s2 */ 
....................  
.................... signed int8 memcmp(void * s1,char *s2,size_t n) 
.................... { 
.................... char *su1, *su2; 
.................... for(su1=s1, su2=s2; 0<n; ++su1, ++su2, --n) 
.................... { 
....................    if(*su1!=*su2) 
....................       return ((*su1<*su2)?-1:+1); 
.................... } 
.................... return 0; 
.................... } 
....................  
.................... /* standard template: int strcmp(const char *s1, const char *s2). 
....................    Compares s1 & s2; returns -1 if s1<s2, 0 if s1=s2, 1 if s1>s2 */ 
....................  
.................... signed int8 strcmp(char *s1, char *s2) 
.................... { 
....................    for (; *s1 == *s2; s1++, s2++) 
....................       if (*s1 == '\0') 
....................          return(0); 
....................    return((*s1 < *s2) ? -1: 1); 
.................... } 
.................... /* standard template: int strcoll(const char *s1, const char *s2). 
....................    Compares s1 & s2; returns -1 if s1<s2, 0 if s1=s2, 1 if s1>s2 */ 
....................  
.................... signed int8 strcoll(char *s1, char *s2) 
.................... { 
....................    for (; *s1 == *s2; s1++, s2++) 
....................       if (*s1 == '\0') 
....................          return(0); 
....................    return((*s1 < *s2) ? -1: 1); 
.................... } 
....................  
.................... /* standard template: 
....................    int strncmp(const char *s1, const char *s2, size_t n). 
....................    Compares max of n characters (not following 0) from s1 to s2; 
....................    returns same as strcmp */ 
....................  
.................... signed int8 strncmp(char *s1, char *s2, size_t n) 
.................... { 
....................    for (; n > 0; s1++, s2++, n--) 
....................       if (*s1 != *s2) 
....................          return((*s1 <*s2) ? -1: 1); 
....................       else if (*s1 == '\0') 
....................          return(0); 
....................    return(0); 
.................... } 
.................... /* standard template: 
....................    int strxfrm(const char *s1, const char *s2, size_t n). 
....................    transforms maximum of n characters from s2 and places them into s1*/ 
.................... size_t strxfrm(char *s1, char *s2, size_t n) 
.................... { 
....................   char *s; 
....................   unsigned int8 n1; 
....................   n1=n; 
....................   for (s = s1; n > 0 && *s2 != '\0'; n--) 
....................      *s++ = *s2++; 
....................   for (; n > 0; n--) 
....................      *s++ = '\0'; 
....................  
....................   return(n1); 
.................... } 
....................  
....................  
....................  
....................  
....................  
.................... /***********************************************************/ 
.................... /*Search functions*/ 
.................... /* standard template: void *memchr(const char *s, int c). 
....................    Finds first occurrence of c in n characters of s */ 
....................  
.................... char *memchr(void *s,unsigned int8 c,size_t n) 
.................... { 
....................    char uc; 
....................    char *su; 
....................    uc=c; 
....................    for(su=s;0<n;++su,--n) 
....................       if(*su==uc) 
....................       return su; 
....................    return NULL; 
.................... } 
....................  
.................... /* standard template: char *strchr(const char *s, int c). 
....................    Finds first occurrence of c in s */ 
....................  
.................... char *strchr(char *s, unsigned int8 c) 
.................... { 
....................    for (; *s != c; s++) 
....................       if (*s == '\0') 
....................          return(0); 
....................    return(s); 
.................... } 
.................... /* standard template: 
....................    size_t strcspn(const char *s1, const char *s2). 
....................    Computes length of max initial segment of s1 that 
....................    consists entirely of characters NOT from s2*/ 
....................  
.................... unsigned int8  strcspn(char *s1, char *s2) 
.................... { 
....................    char *sc1, *sc2; 
....................  
....................    for (sc1 = s1; *sc1 != 0; sc1++) 
....................       for (sc2 = s2; *sc2 != 0; sc2++) 
....................          if (*sc1 == *sc2) 
....................             return(sc1 - s1); 
....................    return(sc1 - s1); 
.................... } 
.................... /* standard template: 
....................    char *strpbrk(const char *s1, const char *s2). 
....................    Locates first occurence of any character from s2 in s1; 
....................    returns s1 if s2 is empty string */ 
....................  
.................... char *strpbrk(char *s1, char *s2) 
.................... { 
....................    char *sc1, *sc2; 
....................  
....................    for (sc1 = s1; *sc1 != 0; sc1++) 
....................       for (sc2 = s2; *sc2 != 0; sc2++) 
....................          if (*sc1 == *sc2) 
....................             return(sc1); 
....................    return(0); 
.................... } 
....................  
....................  
.................... /* standard template: char *strrchr(const char *s, int c). 
....................    Finds last occurrence of c in s */ 
....................  
.................... char *strrchr(char *s, unsigned int8 c) 
.................... { 
....................    char *p; 
....................  
....................    for (p = 0; ; s++) 
....................    { 
....................       if (*s == c) 
....................          p = s; 
....................       if (*s == '\0') 
....................          return(p); 
....................    } 
.................... } 
.................... /* computes length of max initial segment of s1 consisting 
....................    entirely of characters from s2 */ 
....................  
.................... unsigned int8  strspn(char *s1, char *s2) 
.................... { 
....................    char *sc1, *sc2; 
....................  
....................    for (sc1 = s1; *sc1 != 0; sc1++) 
....................       for (sc2 = s2; ; sc2++) 
....................     if (*sc2 == '\0') 
....................        return(sc1 - s1); 
....................          else if (*sc1 == *sc2) 
....................             break; 
....................    return(sc1 - s1); 
.................... } 
.................... /* standard template: 
....................    char *strstr(const char *s1, const char *s2); 
....................    Locates first occurence of character sequence s2 in s1; 
....................    returns 0 if s2 is empty string 
....................  
....................    Uncomment #define FASTER_BUT_MORE_ROM at the top of the 
....................    file to use the faster algorithm */ 
.................... char *strstr(char *s1, char *s2) 
.................... { 
....................    char *s, *t; 
....................  
....................    #ifdef FASTER_BUT_MORE_ROM 
....................    if (*s2 == '\0') 
....................          return(s1); 
....................    #endif 
....................  
....................    while (*s1) 
....................    { 
....................       for(s = s1, t = s2; *t && (*s == *t); ++s, ++t); 
....................  
....................       if (*t == '\0') 
....................          return s1; 
....................       ++s1; 
....................       #ifdef FASTER_BUT_MORE_ROM 
....................          while(*s1 != '\0' && *s1 != *s2) 
....................             ++s1; 
....................       #endif 
....................    } 
....................    return 0; 
.................... } 
....................  
.................... /* standard template: char *strtok(char *s1, const char *s2). 
....................  
....................    Finds next token in s1 delimited by a character from separator 
....................    string s2 (which can be different from call to call).  First call 
....................    starts at beginning of s1 searching for first character NOT 
....................    contained in s2; returns 0 if none is found. 
....................    If one is found, it is the start of first token (return value). 
....................    Function then searches from there for a character contained in s2. 
....................    If none is found, current token extends to end of s1, and subsequent 
....................    searches for a token will return 0.  If one is found, it is 
....................    overwritten by '\0', which terminates current token.  Function saves 
....................    pointer to following character from which next search will start. 
....................    Each subsequent call, with 0 as first argument, starts searching 
....................    from saved pointer */ 
....................  
.................... char *strtok(char *s1, char *s2) 
.................... { 
....................    char *beg, *end; 
....................    static char *save; 
....................  
....................    beg = (s1)? s1: save; 
....................    beg += strspn(beg, s2); 
....................    if (*beg == '\0') 
....................    { 
....................       *save = ' '; 
....................       return(0); 
....................    } 
....................    end = strpbrk(beg, s2); 
....................    if (*end != '\0') 
....................    { 
....................       *end = '\0'; 
....................       end++; 
....................    } 
....................    save = end; 
....................    return(beg); 
.................... } 
....................  
.................... /*****************************************************************/ 
.................... /*Miscellaneous functions*/ 
.................... /* standard template 
.................... maps error number in errnum to an error message string 
.................... Returns: Pointer to string 
.................... */ 
.................... #ifdef _ERRNO 
.................... char * strerror(unsigned int8 errnum) 
.................... { 
.................... static char s[13]; 
.................... switch( errnum) 
.................... { 
.................... case 0: 
....................    strcpy(s,"no errors"); 
....................    return s; 
.................... case EDOM : 
....................    strcpy(s,"domain error"); 
....................    return s; 
.................... case ERANGE: 
....................    strcpy(s,"range error"); 
....................    return s; 
.................... } 
.................... } 
.................... #ENDIF 
.................... /* standard template: size_t strlen(const char *s). 
....................    Computes length of s1 (preceding terminating 0) */ 
....................  
.................... unsigned int8 strlen(char *s) 
.................... { 
....................    char *sc; 
....................  
....................    for (sc = s; *sc != 0; sc++); 
....................    return(sc - s); 
.................... } 
....................  
.................... /* standard template: size_t stricmp(const char *s1, const char *s2). 
....................    Compares s1 to s2 ignoring case (upper vs. lower) */ 
....................  
.................... signed int8 stricmp(char *s1, char *s2) 
.................... { 
....................  for(; *s1==*s2||(isalpha(*s1)&&isalpha(*s2)&&(*s1==*s2+32||*s2==*s1+32)); 
....................     s1++, s2++) 
....................     if (*s1 == '\0') 
....................        return(0); 
....................  return((*s1 < *s2) ? -1: 1); 
.................... } 
....................  
....................  
.................... /* standard template: char *strlwr(char *s). 
....................    Replaces uppercase letters by lowercase; 
....................    returns pointer to new string s */ 
....................  
.................... char *strlwr(char *s) 
.................... { 
....................    char *p; 
....................  
....................    for (p = s; *p != '\0'; p++) 
....................       if (*p >= 'A' && *p <='Z') 
....................          *p += 'a' - 'A'; 
....................    return(s); 
.................... } 
....................  
.................... /* standard template: char *strupr(char *s). 
....................    Replaces lowercase letters by upercase; 
....................    returns pointer to new string s */ 
....................  
.................... char *strupr(char *s) 
.................... { 
....................    char *p; 
....................  
....................    for (p = s; *p != '\0'; p++) 
....................       if (*p >= 'a' && *p <='z') 
....................          *p -= 'a' - 'A'; 
....................    return(s); 
.................... } 
....................  
....................  
.................... /************************************************************/ 
....................  
....................  
.................... #endif 
....................  
....................  
.................... div_t div(signed int numer, signed int denom) 
.................... { 
....................    div_t val; 
....................    val.quot = numer / denom; 
....................    val.rem = numer - (denom * val.quot); 
....................    return (val); 
.................... } 
....................  
.................... ldiv_t ldiv(signed long numer, signed long denom) 
.................... { 
....................    ldiv_t val; 
....................  
....................    val.quot = numer / denom; 
....................    val.rem = numer - (denom * val.quot); 
....................    return (val); 
.................... } 
....................  
.................... #if defined(__PCD__) 
.................... float32 atoe(char * s) 
.................... { 
....................    float32 pow10 = 1.0; 
....................    float32 result = 0.0; 
....................    unsigned int8 sign = 0; 
....................    unsigned int8 expsign = 0; 
....................    char c; 
....................    unsigned int8 ptr = 0; 
....................    unsigned int8 i; 
....................    float32 exp = 1.0; 
....................    unsigned int8 expcnt = 0; 
....................  
....................    c = s[ptr++]; 
....................  
....................    if ((c>='0' && c<='9') || c=='+' || c=='-' || c=='.' || c=='E' || c=='e') { 
....................       if(c == '-') { 
....................          sign = 1; 
....................          c = s[ptr++]; 
....................       } 
....................       if(c == '+') 
....................          c = s[ptr++]; 
....................  
....................       while((c >= '0' && c <= '9')) { 
....................          result = 10*result + c - '0'; 
....................          c = s[ptr++]; 
....................       } 
....................  
....................       if (c == '.') { 
....................          c = s[ptr++]; 
....................          while((c >= '0' && c <= '9')) { 
....................              pow10 = pow10*10; 
....................              result += (c - '0')/pow10; 
....................              c = s[ptr++]; 
....................          } 
....................       } 
....................  
....................       // Handling the exponent 
....................       if (c=='e' || c=='E') { 
....................          c = s[ptr++]; 
....................  
....................          if(c == '-') { 
....................             expsign = 1; 
....................             c = s[ptr++]; 
....................          } 
....................          if(c == '+') 
....................             c = s[ptr++]; 
....................  
....................          while((c >= '0' && c <= '9')) { 
....................             expcnt = 10*expcnt + c - '0'; 
....................             c = s[ptr++]; 
....................          } 
....................  
....................          for(i=0;i<expcnt;i++) 
....................             exp*=10; 
....................  
....................          if(expsign==1) 
....................             result/=exp; 
....................          else 
....................             result*=exp; 
....................       } 
....................    } 
....................  
....................    if (sign == 1) 
....................       result = -1*result; 
....................    return(result); 
.................... } 
.................... #endif 
....................  
.................... #if !defined(__PCD__) 
.................... float atoe(char * s) 
.................... { 
....................    float pow10 = 1.0; 
....................    float result = 0.0; 
....................    unsigned int8 sign = 0; 
....................    unsigned int8 expsign = 0; 
....................    char c; 
....................    unsigned int8 ptr = 0; 
....................    unsigned int8 i; 
....................    float exp = 1.0; 
....................    unsigned int8 expcnt = 0; 
....................  
....................    c = s[ptr++]; 
....................  
....................    if ((c>='0' && c<='9') || c=='+' || c=='-' || c=='.' || c=='E' || c=='e') { 
....................       if(c == '-') { 
....................          sign = 1; 
....................          c = s[ptr++]; 
....................       } 
....................       if(c == '+') 
....................          c = s[ptr++]; 
....................  
....................       while((c >= '0' && c <= '9')) { 
....................          result = 10*result + c - '0'; 
....................          c = s[ptr++]; 
....................       } 
....................  
....................       if (c == '.') { 
....................          c = s[ptr++]; 
....................          while((c >= '0' && c <= '9')) { 
....................              pow10 = pow10*10; 
....................              result += (c - '0')/pow10; 
....................              c = s[ptr++]; 
....................          } 
....................       } 
....................  
....................       // Handling the exponent 
....................       if (c=='e' || c=='E') { 
....................          c = s[ptr++]; 
....................  
....................          if(c == '-') { 
....................             expsign = 1; 
....................             c = s[ptr++]; 
....................          } 
....................          if(c == '+') 
....................             c = s[ptr++]; 
....................  
....................          while((c >= '0' && c <= '9')) { 
....................             expcnt = 10*expcnt + c - '0'; 
....................             c = s[ptr++]; 
....................          } 
....................  
....................          for(i=0;i<expcnt;i++) 
....................             exp*=10; 
....................  
....................          if(expsign==1) 
....................             result/=exp; 
....................          else 
....................             result*=exp; 
....................       } 
....................    } 
....................  
....................    if (sign == 1) 
....................       result = -1*result; 
....................    return(result); 
.................... } 
.................... #endif 
....................  
.................... signed int atoi(char *s) 
.................... { 
....................    signed int result; 
....................    unsigned int sign, base, index; 
....................    char c; 
....................  
....................    index = 0; 
*
1AAA:  MOVLB  2
1AAC:  CLRF   x56
....................    sign = 0; 
1AAE:  CLRF   x54
....................    base = 10; 
1AB0:  MOVLW  0A
1AB2:  MOVWF  x55
....................    result = 0; 
1AB4:  CLRF   x53
....................  
....................    if (!s) 
1AB6:  MOVF   x51,W
1AB8:  IORWF  x52,W
1ABA:  BNZ   1AC2
....................       return 0; 
1ABC:  MOVLW  00
1ABE:  MOVWF  01
1AC0:  BRA    1C48
....................    // Omit all preceeding alpha characters 
....................    c = s[index++]; 
1AC2:  MOVF   x56,W
1AC4:  INCF   x56,F
1AC6:  CLRF   03
1AC8:  ADDWF  x51,W
1ACA:  MOVWF  FE9
1ACC:  MOVF   x52,W
1ACE:  ADDWFC 03,W
1AD0:  MOVWF  FEA
1AD2:  MOVFF  FEF,257
....................  
....................    // increase index if either positive or negative sign is detected 
....................    if (c == '-') 
1AD6:  MOVF   x57,W
1AD8:  SUBLW  2D
1ADA:  BNZ   1AF6
....................    { 
....................       sign = 1;         // Set the sign to negative 
1ADC:  MOVLW  01
1ADE:  MOVWF  x54
....................       c = s[index++]; 
1AE0:  MOVF   x56,W
1AE2:  INCF   x56,F
1AE4:  CLRF   03
1AE6:  ADDWF  x51,W
1AE8:  MOVWF  FE9
1AEA:  MOVF   x52,W
1AEC:  ADDWFC 03,W
1AEE:  MOVWF  FEA
1AF0:  MOVFF  FEF,257
....................    } 
....................    else if (c == '+') 
1AF4:  BRA    1B10
1AF6:  MOVF   x57,W
1AF8:  SUBLW  2B
1AFA:  BNZ   1B10
....................    { 
....................       c = s[index++]; 
1AFC:  MOVF   x56,W
1AFE:  INCF   x56,F
1B00:  CLRF   03
1B02:  ADDWF  x51,W
1B04:  MOVWF  FE9
1B06:  MOVF   x52,W
1B08:  ADDWFC 03,W
1B0A:  MOVWF  FEA
1B0C:  MOVFF  FEF,257
....................    } 
....................  
....................    if (c >= '0' && c <= '9') 
1B10:  MOVF   x57,W
1B12:  SUBLW  2F
1B14:  BTFSC  FD8.0
1B16:  BRA    1C38
1B18:  MOVF   x57,W
1B1A:  SUBLW  39
1B1C:  BTFSS  FD8.0
1B1E:  BRA    1C38
....................    { 
....................  
....................       // Check for hexa number 
....................       if (c == '0' && (s[index] == 'x' || s[index] == 'X')) 
1B20:  MOVF   x57,W
1B22:  SUBLW  30
1B24:  BNZ   1B68
1B26:  CLRF   03
1B28:  MOVF   x56,W
1B2A:  ADDWF  x51,W
1B2C:  MOVWF  FE9
1B2E:  MOVF   x52,W
1B30:  ADDWFC 03,W
1B32:  MOVWF  FEA
1B34:  MOVF   FEF,W
1B36:  SUBLW  78
1B38:  BZ    1B4E
1B3A:  CLRF   03
1B3C:  MOVF   x56,W
1B3E:  ADDWF  x51,W
1B40:  MOVWF  FE9
1B42:  MOVF   x52,W
1B44:  ADDWFC 03,W
1B46:  MOVWF  FEA
1B48:  MOVF   FEF,W
1B4A:  SUBLW  58
1B4C:  BNZ   1B68
....................       { 
....................          base = 16; 
1B4E:  MOVLW  10
1B50:  MOVWF  x55
....................          index++; 
1B52:  INCF   x56,F
....................          c = s[index++]; 
1B54:  MOVF   x56,W
1B56:  INCF   x56,F
1B58:  CLRF   03
1B5A:  ADDWF  x51,W
1B5C:  MOVWF  FE9
1B5E:  MOVF   x52,W
1B60:  ADDWFC 03,W
1B62:  MOVWF  FEA
1B64:  MOVFF  FEF,257
....................       } 
....................  
....................       // The number is a decimal number 
....................       if (base == 10) 
1B68:  MOVF   x55,W
1B6A:  SUBLW  0A
1B6C:  BNZ   1BA8
....................       { 
....................          while (c >= '0' && c <= '9') 
....................          { 
1B6E:  MOVF   x57,W
1B70:  SUBLW  2F
1B72:  BC    1BA6
1B74:  MOVF   x57,W
1B76:  SUBLW  39
1B78:  BNC   1BA6
....................             result = 10*result + (c - '0'); 
1B7A:  MOVLW  0A
1B7C:  MOVWF  x58
1B7E:  MOVFF  253,259
1B82:  MOVLB  0
1B84:  BRA    1A5A
1B86:  MOVLW  30
1B88:  MOVLB  2
1B8A:  SUBWF  x57,W
1B8C:  ADDWF  01,W
1B8E:  MOVWF  x53
....................             c = s[index++]; 
1B90:  MOVF   x56,W
1B92:  INCF   x56,F
1B94:  CLRF   03
1B96:  ADDWF  x51,W
1B98:  MOVWF  FE9
1B9A:  MOVF   x52,W
1B9C:  ADDWFC 03,W
1B9E:  MOVWF  FEA
1BA0:  MOVFF  FEF,257
....................          } 
1BA4:  BRA    1B6E
....................       } 
....................       else if (base == 16)    // The number is a hexa number 
1BA6:  BRA    1C38
1BA8:  MOVF   x55,W
1BAA:  SUBLW  10
1BAC:  BNZ   1C38
....................       { 
....................          c = toupper(c); 
1BAE:  MOVF   x57,W
1BB0:  SUBLW  60
1BB2:  BC    1BC0
1BB4:  MOVF   x57,W
1BB6:  SUBLW  7A
1BB8:  BNC   1BC0
1BBA:  MOVF   x57,W
1BBC:  ANDLW  DF
1BBE:  BRA    1BC2
1BC0:  MOVF   x57,W
1BC2:  MOVWF  x57
....................          while ( (c >= '0' && c <= '9') || (c >= 'A' && c<='F')) 
....................          { 
1BC4:  MOVF   x57,W
1BC6:  SUBLW  2F
1BC8:  BC    1BD0
1BCA:  MOVF   x57,W
1BCC:  SUBLW  39
1BCE:  BC    1BDC
1BD0:  MOVF   x57,W
1BD2:  SUBLW  40
1BD4:  BC    1C38
1BD6:  MOVF   x57,W
1BD8:  SUBLW  46
1BDA:  BNC   1C38
....................             if (c >= '0' && c <= '9') 
1BDC:  MOVF   x57,W
1BDE:  SUBLW  2F
1BE0:  BC    1BFA
1BE2:  MOVF   x57,W
1BE4:  SUBLW  39
1BE6:  BNC   1BFA
....................                result = (result << 4) + (c - '0'); 
1BE8:  SWAPF  x53,W
1BEA:  MOVWF  x58
1BEC:  MOVLW  F0
1BEE:  ANDWF  x58,F
1BF0:  MOVLW  30
1BF2:  SUBWF  x57,W
1BF4:  ADDWF  x58,W
1BF6:  MOVWF  x53
....................             else 
1BF8:  BRA    1C0C
....................                result = (result << 4) + (c - 'A' + 10); 
1BFA:  SWAPF  x53,W
1BFC:  MOVWF  x58
1BFE:  MOVLW  F0
1C00:  ANDWF  x58,F
1C02:  MOVLW  41
1C04:  SUBWF  x57,W
1C06:  ADDLW  0A
1C08:  ADDWF  x58,W
1C0A:  MOVWF  x53
....................  
....................             c = s[index++]; 
1C0C:  MOVF   x56,W
1C0E:  INCF   x56,F
1C10:  CLRF   03
1C12:  ADDWF  x51,W
1C14:  MOVWF  FE9
1C16:  MOVF   x52,W
1C18:  ADDWFC 03,W
1C1A:  MOVWF  FEA
1C1C:  MOVFF  FEF,257
....................             c = toupper(c); 
1C20:  MOVF   x57,W
1C22:  SUBLW  60
1C24:  BC    1C32
1C26:  MOVF   x57,W
1C28:  SUBLW  7A
1C2A:  BNC   1C32
1C2C:  MOVF   x57,W
1C2E:  ANDLW  DF
1C30:  BRA    1C34
1C32:  MOVF   x57,W
1C34:  MOVWF  x57
....................          } 
1C36:  BRA    1BC4
....................       } 
....................    } 
....................  
....................    if (sign == 1 && base == 10) 
1C38:  DECFSZ x54,W
1C3A:  BRA    1C44
1C3C:  MOVF   x55,W
1C3E:  SUBLW  0A
1C40:  BNZ   1C44
....................        result = -result; 
1C42:  NEGF   x53
....................  
....................    return(result); 
1C44:  MOVFF  253,01
.................... } 
1C48:  MOVLB  0
1C4A:  RETURN 0
....................  
.................... signed long atol(char *s) 
.................... { 
....................    signed long result; 
....................    unsigned int sign, base, index; 
....................    char c; 
....................  
....................    index = 0; 
....................    sign = 0; 
....................    base = 10; 
....................    result = 0; 
....................  
....................    if (!s) 
....................       return 0; 
....................    c = s[index++]; 
....................  
....................    // increase index if either positive or negative sign is detected 
....................    if (c == '-') 
....................    { 
....................       sign = 1;         // Set the sign to negative 
....................       c = s[index++]; 
....................    } 
....................    else if (c == '+') 
....................    { 
....................       c = s[index++]; 
....................    } 
....................  
....................    if (c >= '0' && c <= '9') 
....................    { 
....................       if (c == '0' && (s[index] == 'x' || s[index] == 'X')) 
....................       { 
....................          base = 16; 
....................          index++; 
....................          c = s[index++]; 
....................       } 
....................  
....................       // The number is a decimal number 
....................       if (base == 10) 
....................       { 
....................          while (c >= '0' && c <= '9') 
....................          { 
....................             result = 10*result + (c - '0'); 
....................             c = s[index++]; 
....................          } 
....................       } 
....................       else if (base == 16)    // The number is a hexa number 
....................       { 
....................          c = toupper(c); 
....................          while ( (c >= '0' && c <= '9') || (c >= 'A' && c <='F')) 
....................          { 
....................             if (c >= '0' && c <= '9') 
....................                result = (result << 4) + (c - '0'); 
....................             else 
....................                result = (result << 4) + (c - 'A' + 10); 
....................  
....................             c = s[index++];c = toupper(c); 
....................          } 
....................       } 
....................    } 
....................  
....................    if (base == 10 && sign == 1) 
....................       result = -result; 
....................  
....................    return(result); 
.................... } 
....................  
.................... /* A fast routine to multiply by 10 
....................  */ 
.................... signed int32 mult_with10(int32 num) 
.................... { 
....................    return ( (num << 1) + (num << 3) ); 
.................... } 
....................  
.................... #if sizeof(long)==2 
.................... signed int32 atoi32(char *s) 
.................... { 
....................    signed int32 result; 
....................    int8 sign, base, index; 
....................    char c; 
....................  
....................    index = 0; 
*
0D5C:  MOVLB  2
0D5E:  CLRF   x5B
....................    sign = 0; 
0D60:  CLRF   x59
....................    base = 10; 
0D62:  MOVLW  0A
0D64:  MOVWF  x5A
....................    result = 0; 
0D66:  CLRF   x58
0D68:  CLRF   x57
0D6A:  CLRF   x56
0D6C:  CLRF   x55
....................  
....................    if (!s) 
0D6E:  MOVF   x53,W
0D70:  IORWF  x54,W
0D72:  BNZ   0D7E
....................       return 0; 
0D74:  CLRF   00
0D76:  CLRF   01
0D78:  CLRF   02
0D7A:  CLRF   03
0D7C:  BRA    0FF8
....................    c = s[index++]; 
0D7E:  MOVF   x5B,W
0D80:  INCF   x5B,F
0D82:  CLRF   03
0D84:  ADDWF  x53,W
0D86:  MOVWF  FE9
0D88:  MOVF   x54,W
0D8A:  ADDWFC 03,W
0D8C:  MOVWF  FEA
0D8E:  MOVFF  FEF,25C
....................  
....................    // increase index if either positive or negative sign is detected 
....................    if (c == '-') 
0D92:  MOVF   x5C,W
0D94:  SUBLW  2D
0D96:  BNZ   0DB2
....................    { 
....................       sign = 1;         // Set the sign to negative 
0D98:  MOVLW  01
0D9A:  MOVWF  x59
....................       c = s[index++]; 
0D9C:  MOVF   x5B,W
0D9E:  INCF   x5B,F
0DA0:  CLRF   03
0DA2:  ADDWF  x53,W
0DA4:  MOVWF  FE9
0DA6:  MOVF   x54,W
0DA8:  ADDWFC 03,W
0DAA:  MOVWF  FEA
0DAC:  MOVFF  FEF,25C
....................    } 
....................    else if (c == '+') 
0DB0:  BRA    0DCC
0DB2:  MOVF   x5C,W
0DB4:  SUBLW  2B
0DB6:  BNZ   0DCC
....................    { 
....................       c = s[index++]; 
0DB8:  MOVF   x5B,W
0DBA:  INCF   x5B,F
0DBC:  CLRF   03
0DBE:  ADDWF  x53,W
0DC0:  MOVWF  FE9
0DC2:  MOVF   x54,W
0DC4:  ADDWFC 03,W
0DC6:  MOVWF  FEA
0DC8:  MOVFF  FEF,25C
....................    } 
....................  
....................    if (c >= '0' && c <= '9') 
0DCC:  MOVF   x5C,W
0DCE:  SUBLW  2F
0DD0:  BTFSC  FD8.0
0DD2:  BRA    0FC8
0DD4:  MOVF   x5C,W
0DD6:  SUBLW  39
0DD8:  BTFSS  FD8.0
0DDA:  BRA    0FC8
....................    { 
....................       if (c == '0' && (s[index] == 'x' || s[index] == 'X')) 
0DDC:  MOVF   x5C,W
0DDE:  SUBLW  30
0DE0:  BNZ   0E24
0DE2:  CLRF   03
0DE4:  MOVF   x5B,W
0DE6:  ADDWF  x53,W
0DE8:  MOVWF  FE9
0DEA:  MOVF   x54,W
0DEC:  ADDWFC 03,W
0DEE:  MOVWF  FEA
0DF0:  MOVF   FEF,W
0DF2:  SUBLW  78
0DF4:  BZ    0E0A
0DF6:  CLRF   03
0DF8:  MOVF   x5B,W
0DFA:  ADDWF  x53,W
0DFC:  MOVWF  FE9
0DFE:  MOVF   x54,W
0E00:  ADDWFC 03,W
0E02:  MOVWF  FEA
0E04:  MOVF   FEF,W
0E06:  SUBLW  58
0E08:  BNZ   0E24
....................       { 
....................          base = 16; 
0E0A:  MOVLW  10
0E0C:  MOVWF  x5A
....................          index++; 
0E0E:  INCF   x5B,F
....................          c = s[index++]; 
0E10:  MOVF   x5B,W
0E12:  INCF   x5B,F
0E14:  CLRF   03
0E16:  ADDWF  x53,W
0E18:  MOVWF  FE9
0E1A:  MOVF   x54,W
0E1C:  ADDWFC 03,W
0E1E:  MOVWF  FEA
0E20:  MOVFF  FEF,25C
....................       } 
....................  
....................       // The number is a decimal number 
....................       if (base == 10) 
0E24:  MOVF   x5A,W
0E26:  SUBLW  0A
0E28:  BNZ   0EB2
....................       { 
....................          while (c >= '0' && c <= '9') { 
0E2A:  MOVF   x5C,W
0E2C:  SUBLW  2F
0E2E:  BC    0EB0
0E30:  MOVF   x5C,W
0E32:  SUBLW  39
0E34:  BNC   0EB0
....................             result = (result << 1) + (result << 3);  // result *= 10; 
0E36:  BCF    FD8.0
0E38:  RLCF   x55,W
0E3A:  MOVWF  x5E
0E3C:  RLCF   x56,W
0E3E:  MOVWF  x5F
0E40:  RLCF   x57,W
0E42:  MOVWF  x60
0E44:  RLCF   x58,W
0E46:  MOVWF  x61
0E48:  RLCF   x55,W
0E4A:  MOVWF  00
0E4C:  RLCF   x56,W
0E4E:  MOVWF  01
0E50:  RLCF   x57,W
0E52:  MOVWF  02
0E54:  RLCF   x58,W
0E56:  MOVWF  03
0E58:  RLCF   00,F
0E5A:  RLCF   01,F
0E5C:  RLCF   02,F
0E5E:  RLCF   03,F
0E60:  RLCF   00,F
0E62:  RLCF   01,F
0E64:  RLCF   02,F
0E66:  RLCF   03,F
0E68:  MOVLW  F8
0E6A:  ANDWF  00,F
0E6C:  MOVF   x5E,W
0E6E:  ADDWF  00,F
0E70:  MOVF   x5F,W
0E72:  ADDWFC 01,F
0E74:  MOVF   x60,W
0E76:  ADDWFC 02,F
0E78:  MOVF   x61,W
0E7A:  ADDWFC 03,F
0E7C:  MOVFF  03,258
0E80:  MOVFF  02,257
0E84:  MOVFF  01,256
0E88:  MOVFF  00,255
....................             result += (c - '0'); 
0E8C:  MOVLW  30
0E8E:  SUBWF  x5C,W
0E90:  ADDWF  x55,F
0E92:  MOVLW  00
0E94:  ADDWFC x56,F
0E96:  ADDWFC x57,F
0E98:  ADDWFC x58,F
....................             c = s[index++]; 
0E9A:  MOVF   x5B,W
0E9C:  INCF   x5B,F
0E9E:  CLRF   03
0EA0:  ADDWF  x53,W
0EA2:  MOVWF  FE9
0EA4:  MOVF   x54,W
0EA6:  ADDWFC 03,W
0EA8:  MOVWF  FEA
0EAA:  MOVFF  FEF,25C
....................          } 
0EAE:  BRA    0E2A
....................       } 
....................       else if (base == 16)    // The number is a hexa number 
0EB0:  BRA    0FC8
0EB2:  MOVF   x5A,W
0EB4:  SUBLW  10
0EB6:  BTFSS  FD8.2
0EB8:  BRA    0FC8
....................       { 
....................          c = toupper(c); 
0EBA:  MOVF   x5C,W
0EBC:  SUBLW  60
0EBE:  BC    0ECC
0EC0:  MOVF   x5C,W
0EC2:  SUBLW  7A
0EC4:  BNC   0ECC
0EC6:  MOVF   x5C,W
0EC8:  ANDLW  DF
0ECA:  BRA    0ECE
0ECC:  MOVF   x5C,W
0ECE:  MOVWF  x5C
....................          while ((c >= '0' && c <= '9') || (c >= 'A' && c <='F')) 
....................          { 
0ED0:  MOVF   x5C,W
0ED2:  SUBLW  2F
0ED4:  BC    0EDC
0ED6:  MOVF   x5C,W
0ED8:  SUBLW  39
0EDA:  BC    0EEA
0EDC:  MOVF   x5C,W
0EDE:  SUBLW  40
0EE0:  BTFSC  FD8.0
0EE2:  BRA    0FC8
0EE4:  MOVF   x5C,W
0EE6:  SUBLW  46
0EE8:  BNC   0FC8
....................             if (c >= '0' && c <= '9') 
0EEA:  MOVF   x5C,W
0EEC:  SUBLW  2F
0EEE:  BC    0F4A
0EF0:  MOVF   x5C,W
0EF2:  SUBLW  39
0EF4:  BNC   0F4A
....................                result = (result << 4) + (c - '0'); 
0EF6:  RLCF   x55,W
0EF8:  MOVWF  x5E
0EFA:  RLCF   x56,W
0EFC:  MOVWF  x5F
0EFE:  RLCF   x57,W
0F00:  MOVWF  x60
0F02:  RLCF   x58,W
0F04:  MOVWF  x61
0F06:  RLCF   x5E,F
0F08:  RLCF   x5F,F
0F0A:  RLCF   x60,F
0F0C:  RLCF   x61,F
0F0E:  RLCF   x5E,F
0F10:  RLCF   x5F,F
0F12:  RLCF   x60,F
0F14:  RLCF   x61,F
0F16:  RLCF   x5E,F
0F18:  RLCF   x5F,F
0F1A:  RLCF   x60,F
0F1C:  RLCF   x61,F
0F1E:  MOVLW  F0
0F20:  ANDWF  x5E,F
0F22:  MOVLW  30
0F24:  SUBWF  x5C,W
0F26:  ADDWF  x5E,W
0F28:  MOVWF  00
0F2A:  MOVLW  00
0F2C:  ADDWFC x5F,W
0F2E:  MOVWF  01
0F30:  MOVLW  00
0F32:  ADDWFC x60,W
0F34:  MOVWF  02
0F36:  MOVLW  00
0F38:  ADDWFC x61,W
0F3A:  MOVWF  x58
0F3C:  MOVFF  02,257
0F40:  MOVFF  01,256
0F44:  MOVFF  00,255
....................             else 
0F48:  BRA    0F9E
....................                result = (result << 4) + (c - 'A' + 10); 
0F4A:  RLCF   x55,W
0F4C:  MOVWF  x5E
0F4E:  RLCF   x56,W
0F50:  MOVWF  x5F
0F52:  RLCF   x57,W
0F54:  MOVWF  x60
0F56:  RLCF   x58,W
0F58:  MOVWF  x61
0F5A:  RLCF   x5E,F
0F5C:  RLCF   x5F,F
0F5E:  RLCF   x60,F
0F60:  RLCF   x61,F
0F62:  RLCF   x5E,F
0F64:  RLCF   x5F,F
0F66:  RLCF   x60,F
0F68:  RLCF   x61,F
0F6A:  RLCF   x5E,F
0F6C:  RLCF   x5F,F
0F6E:  RLCF   x60,F
0F70:  RLCF   x61,F
0F72:  MOVLW  F0
0F74:  ANDWF  x5E,F
0F76:  MOVLW  41
0F78:  SUBWF  x5C,W
0F7A:  ADDLW  0A
0F7C:  ADDWF  x5E,W
0F7E:  MOVWF  00
0F80:  MOVLW  00
0F82:  ADDWFC x5F,W
0F84:  MOVWF  01
0F86:  MOVLW  00
0F88:  ADDWFC x60,W
0F8A:  MOVWF  02
0F8C:  MOVLW  00
0F8E:  ADDWFC x61,W
0F90:  MOVWF  x58
0F92:  MOVFF  02,257
0F96:  MOVFF  01,256
0F9A:  MOVFF  00,255
....................  
....................             c = s[index++];c = toupper(c); 
0F9E:  MOVF   x5B,W
0FA0:  INCF   x5B,F
0FA2:  CLRF   03
0FA4:  ADDWF  x53,W
0FA6:  MOVWF  FE9
0FA8:  MOVF   x54,W
0FAA:  ADDWFC 03,W
0FAC:  MOVWF  FEA
0FAE:  MOVF   FEF,W
0FB0:  MOVWF  x5C
0FB2:  SUBLW  60
0FB4:  BC    0FC2
0FB6:  MOVF   x5C,W
0FB8:  SUBLW  7A
0FBA:  BNC   0FC2
0FBC:  MOVF   x5C,W
0FBE:  ANDLW  DF
0FC0:  BRA    0FC4
0FC2:  MOVF   x5C,W
0FC4:  MOVWF  x5C
....................          } 
0FC6:  BRA    0ED0
....................       } 
....................    } 
....................  
....................    if (base == 10 && sign == 1) 
0FC8:  MOVF   x5A,W
0FCA:  SUBLW  0A
0FCC:  BNZ   0FE8
0FCE:  DECFSZ x59,W
0FD0:  BRA    0FE8
....................       result = -result; 
0FD2:  COMF   x55,F
0FD4:  COMF   x56,F
0FD6:  COMF   x57,F
0FD8:  COMF   x58,F
0FDA:  INCF   x55,F
0FDC:  BTFSC  FD8.2
0FDE:  INCF   x56,F
0FE0:  BTFSC  FD8.2
0FE2:  INCF   x57,F
0FE4:  BTFSC  FD8.2
0FE6:  INCF   x58,F
....................  
....................    return(result); 
0FE8:  MOVFF  255,00
0FEC:  MOVFF  256,01
0FF0:  MOVFF  257,02
0FF4:  MOVFF  258,03
.................... } 
0FF8:  MOVLB  0
0FFA:  RETURN 0
.................... #endif 
....................  
.................... #if defined(__PCD__) 
....................  
.................... signed int48 atoi48(char *s) 
.................... { 
....................    signed int48 result; 
....................    int8 sign, base, index; 
....................    char c; 
....................  
....................    index = 0; 
....................    sign = 0; 
....................    base = 10; 
....................    result = 0; 
....................  
....................    if (!s) 
....................       return 0; 
....................    c = s[index++]; 
....................  
....................    // increase index if either positive or negative sign is detected 
....................    if (c == '-') 
....................    { 
....................       sign = 1;         // Set the sign to negative 
....................       c = s[index++]; 
....................    } 
....................    else if (c == '+') 
....................    { 
....................       c = s[index++]; 
....................    } 
....................  
....................    if (c >= '0' && c <= '9') 
....................    { 
....................       if (c == '0' && (s[index] == 'x' || s[index] == 'X')) 
....................       { 
....................          base = 16; 
....................          index++; 
....................          c = s[index++]; 
....................       } 
....................  
....................       // The number is a decimal number 
....................       if (base == 10) 
....................       { 
....................          while (c >= '0' && c <= '9') { 
....................             result = (result << 1) + (result << 3);  // result *= 10; 
....................             result += (c - '0'); 
....................             c = s[index++]; 
....................          } 
....................       } 
....................       else if (base == 16)    // The number is a hexa number 
....................       { 
....................          c = toupper(c); 
....................          while ((c >= '0' && c <= '9') || (c >= 'A' && c <='F')) 
....................          { 
....................             if (c >= '0' && c <= '9') 
....................                result = (result << 4) + (c - '0'); 
....................             else 
....................                result = (result << 4) + (c - 'A' + 10); 
....................  
....................             c = s[index++];c = toupper(c); 
....................          } 
....................       } 
....................    } 
....................  
....................    if (base == 10 && sign == 1) 
....................       result = -result; 
....................  
....................    return(result); 
.................... } 
....................  
.................... signed int64 atoi64(char *s) 
.................... { 
....................    signed int64 result; 
....................    int8 sign, base, index; 
....................    char c; 
....................  
....................    index = 0; 
....................    sign = 0; 
....................    base = 10; 
....................    result = 0; 
....................  
....................    if (!s) 
....................       return 0; 
....................    c = s[index++]; 
....................  
....................    // increase index if either positive or negative sign is detected 
....................    if (c == '-') 
....................    { 
....................       sign = 1;         // Set the sign to negative 
....................       c = s[index++]; 
....................    } 
....................    else if (c == '+') 
....................    { 
....................       c = s[index++]; 
....................    } 
....................  
....................    if (c >= '0' && c <= '9') 
....................    { 
....................       if (c == '0' && (s[index] == 'x' || s[index] == 'X')) 
....................       { 
....................          base = 16; 
....................          index++; 
....................          c = s[index++]; 
....................       } 
....................  
....................       // The number is a decimal number 
....................       if (base == 10) 
....................       { 
....................          while (c >= '0' && c <= '9') { 
....................             result = (result << 1) + (result << 3);  // result *= 10; 
....................             result += (c - '0'); 
....................             c = s[index++]; 
....................          } 
....................       } 
....................       else if (base == 16)    // The number is a hexa number 
....................       { 
....................          c = toupper(c); 
....................          while ((c >= '0' && c <= '9') || (c >= 'A' && c <='F')) 
....................          { 
....................             if (c >= '0' && c <= '9') 
....................                result = (result << 4) + (c - '0'); 
....................             else 
....................                result = (result << 4) + (c - 'A' + 10); 
....................  
....................             c = s[index++];c = toupper(c); 
....................          } 
....................       } 
....................    } 
....................  
....................    if (base == 10 && sign == 1) 
....................       result = -result; 
....................  
....................    return(result); 
.................... } 
.................... #endif 
....................  
.................... char * itoa(signed int32 num, unsigned int base, char * s) 
.................... { 
*
7608:  MOVLB  2
760A:  CLRF   x5C
760C:  CLRF   x5B
760E:  CLRF   x5A
7610:  MOVLW  01
7612:  MOVWF  x59
7614:  CLRF   x5E
7616:  CLRF   x5F
....................      unsigned int32 temp=1; 
....................      unsigned int8 i,sign=0,cnt=0; 
....................      char c; 
....................  
....................      if(num<0) { 
7618:  BTFSC  x55.7
761A:  BRA    761E
761C:  BRA    7650
....................          sign=1;        // Check for negative number 
761E:  MOVLW  01
7620:  MOVWF  x5E
....................          num*=-1; 
7622:  MOVFF  255,264
7626:  MOVFF  254,263
762A:  MOVFF  253,262
762E:  MOVFF  252,261
7632:  SETF   x68
7634:  SETF   x67
7636:  SETF   x66
7638:  SETF   x65
763A:  MOVLB  0
763C:  BRA    74C0
763E:  MOVFF  03,255
7642:  MOVFF  02,254
7646:  MOVFF  01,253
764A:  MOVFF  00,252
764E:  MOVLB  2
....................      } 
....................  
....................      while(temp>0) { 
7650:  MOVF   x59,F
7652:  BNZ   7660
7654:  MOVF   x5A,F
7656:  BNZ   7660
7658:  MOVF   x5B,F
765A:  BNZ   7660
765C:  MOVF   x5C,F
765E:  BZ    773A
....................          temp=(num/base); 
7660:  BCF    FD8.1
7662:  MOVFF  255,26C
7666:  MOVFF  254,26B
766A:  MOVFF  253,26A
766E:  MOVFF  252,269
7672:  CLRF   x70
7674:  CLRF   x6F
7676:  CLRF   x6E
7678:  MOVFF  256,26D
767C:  MOVLB  0
767E:  RCALL  751E
7680:  MOVFF  03,25C
7684:  MOVFF  02,25B
7688:  MOVFF  01,25A
768C:  MOVFF  00,259
....................          s[cnt]=(num%base)+'0';    // Conversion 
7690:  CLRF   03
7692:  MOVLB  2
7694:  MOVF   x5F,W
7696:  ADDWF  x57,W
7698:  MOVWF  01
769A:  MOVF   x58,W
769C:  ADDWFC 03,F
769E:  MOVFF  01,261
76A2:  MOVFF  03,262
76A6:  MOVFF  FEA,264
76AA:  MOVFF  FE9,263
76AE:  BSF    FD8.1
76B0:  MOVLW  02
76B2:  MOVWF  FEA
76B4:  MOVLW  65
76B6:  MOVWF  FE9
76B8:  MOVFF  255,26C
76BC:  MOVFF  254,26B
76C0:  MOVFF  253,26A
76C4:  MOVFF  252,269
76C8:  CLRF   x70
76CA:  CLRF   x6F
76CC:  CLRF   x6E
76CE:  MOVFF  256,26D
76D2:  MOVLB  0
76D4:  RCALL  751E
76D6:  MOVFF  264,FEA
76DA:  MOVFF  263,FE9
76DE:  MOVLW  30
76E0:  MOVLB  2
76E2:  ADDWF  x65,W
76E4:  MOVWF  00
76E6:  MOVLW  00
76E8:  ADDWFC x66,W
76EA:  MOVLW  00
76EC:  ADDWFC x67,W
76EE:  MOVLW  00
76F0:  ADDWFC x68,W
76F2:  MOVFF  262,FEA
76F6:  MOVFF  261,FE9
76FA:  MOVFF  00,FEF
....................  
....................          if(s[cnt]>0x39) 
76FE:  CLRF   03
7700:  MOVF   x5F,W
7702:  ADDWF  x57,W
7704:  MOVWF  FE9
7706:  MOVF   x58,W
7708:  ADDWFC 03,W
770A:  MOVWF  FEA
770C:  MOVF   FEF,W
770E:  SUBLW  39
7710:  BC    7726
....................             s[cnt]+=0x7; 
7712:  CLRF   03
7714:  MOVF   x5F,W
7716:  ADDWF  x57,W
7718:  MOVWF  FE9
771A:  MOVF   x58,W
771C:  ADDWFC 03,W
771E:  MOVWF  FEA
7720:  MOVLW  07
7722:  ADDWF  FEF,W
7724:  MOVWF  FEF
....................  
....................          cnt++; 
7726:  INCF   x5F,F
....................          num=temp; 
7728:  MOVFF  25C,255
772C:  MOVFF  25B,254
7730:  MOVFF  25A,253
7734:  MOVFF  259,252
....................      } 
7738:  BRA    7650
....................  
....................      if(sign==1) { 
773A:  DECFSZ x5E,W
773C:  BRA    7752
....................          s[cnt]=0x2D;      // Negative sign 
773E:  CLRF   03
7740:  MOVF   x5F,W
7742:  ADDWF  x57,W
7744:  MOVWF  FE9
7746:  MOVF   x58,W
7748:  ADDWFC 03,W
774A:  MOVWF  FEA
774C:  MOVLW  2D
774E:  MOVWF  FEF
....................          cnt++; 
7750:  INCF   x5F,F
....................      } 
....................  
....................      for(i = 0;i<(int8)(cnt/2);i++) { 
7752:  CLRF   x5D
7754:  BCF    FD8.0
7756:  RRCF   x5F,W
7758:  SUBWF  x5D,W
775A:  BC    77BA
....................  
....................          c=s[i]; 
775C:  CLRF   03
775E:  MOVF   x5D,W
7760:  ADDWF  x57,W
7762:  MOVWF  FE9
7764:  MOVF   x58,W
7766:  ADDWFC 03,W
7768:  MOVWF  FEA
776A:  MOVFF  FEF,260
....................          s[i]=s[cnt-i-1];        // Reverse the number 
776E:  CLRF   03
7770:  MOVF   x5D,W
7772:  ADDWF  x57,W
7774:  MOVWF  01
7776:  MOVF   x58,W
7778:  ADDWFC 03,F
777A:  MOVFF  03,262
777E:  MOVF   x5D,W
7780:  SUBWF  x5F,W
7782:  ADDLW  FF
7784:  CLRF   03
7786:  ADDWF  x57,W
7788:  MOVWF  FE9
778A:  MOVF   x58,W
778C:  ADDWFC 03,W
778E:  MOVWF  FEA
7790:  MOVFF  FEF,263
7794:  MOVFF  262,FEA
7798:  MOVFF  01,FE9
779C:  MOVFF  263,FEF
....................          s[cnt-i-1]=c; 
77A0:  MOVF   x5D,W
77A2:  SUBWF  x5F,W
77A4:  ADDLW  FF
77A6:  CLRF   03
77A8:  ADDWF  x57,W
77AA:  MOVWF  FE9
77AC:  MOVF   x58,W
77AE:  ADDWFC 03,W
77B0:  MOVWF  FEA
77B2:  MOVFF  260,FEF
....................      } 
77B6:  INCF   x5D,F
77B8:  BRA    7754
....................      s[cnt]='\0';     // End the string 
77BA:  CLRF   03
77BC:  MOVF   x5F,W
77BE:  ADDWF  x57,W
77C0:  MOVWF  FE9
77C2:  MOVF   x58,W
77C4:  ADDWFC 03,W
77C6:  MOVWF  FEA
77C8:  CLRF   FEF
....................      return s; 
77CA:  MOVFF  257,01
77CE:  MOVFF  258,02
.................... } 
77D2:  MOVLB  0
77D4:  GOTO   7894 (RETURN)
....................  
.................... #if defined(__PCD__) 
....................  
.................... char * itoa(signed int48 num, unsigned int base, char * s) 
.................... { 
....................      unsigned int48 temp=1; 
....................      unsigned int8 i,sign=0,cnt=0; 
....................      char c; 
....................  
....................      if(num<0) { 
....................          sign=1;        // Check for negative number 
....................          num*=-1; 
....................      } 
....................  
....................      while(temp>0) { 
....................          temp=(num/base); 
....................          s[cnt]=(num%base)+'0';    // Conversion 
....................  
....................          if(s[cnt]>0x39) 
....................             s[cnt]+=0x7; 
....................  
....................          cnt++; 
....................          num=temp; 
....................      } 
....................  
....................      if(sign==1) { 
....................          s[cnt]=0x2D;      // Negative sign 
....................          cnt++; 
....................      } 
....................  
....................      for(i = 0;i<(int8)(cnt/2);i++) { 
....................  
....................          c=s[i]; 
....................          s[i]=s[cnt-i-1];        // Reverse the number 
....................          s[cnt-i-1]=c; 
....................      } 
....................      s[cnt]='\0';     // End the string 
....................      return s; 
.................... } 
....................  
.................... char * itoa(signed int64 num, unsigned int base, char * s) 
.................... { 
....................      unsigned int64 temp=1; 
....................      unsigned int8 i,sign=0,cnt=0; 
....................      char c; 
....................       
....................      if(num<0) { 
....................          sign=1;        // Check for negative number 
....................          num*=-1;         
....................      } 
....................  
....................      while(temp>0) { 
....................          temp=(num/base); 
....................          s[cnt]=(num%base)+'0';    // Conversion 
....................  
....................          if(s[cnt]>0x39) 
....................             s[cnt]+=0x7; 
....................              
....................          cnt++; 
....................          num=temp; 
....................      } 
....................  
....................      if(sign==1) { 
....................          s[cnt]=0x2D;      // Negative sign 
....................          cnt++; 
....................      } 
....................  
....................      for(i = 0;i<(int8)(cnt/2);i++) { 
....................  
....................          c=s[i]; 
....................          s[i]=s[cnt-i-1];        // Reverse the number 
....................          s[cnt-i-1]=c; 
....................      } 
....................      s[cnt]='\0';     // End the string 
....................      return s; 
.................... } 
....................  
.................... #endif 
....................  
.................... float strtof(char *s, char *endptr) 
.................... { 
....................    float pow10 = 1.0; 
....................    float result = 0.0; 
....................    int1 skip = 1, sign = 0, point = 0; 
....................    char c; 
....................    unsigned int8 ptr = 0; 
....................  
....................    if (!s) 
....................       return 0; 
....................  
....................    for(c=s[ptr++]; c!=0; c=s[ptr++]) 
....................    { 
....................       if (skip && !isspace(c)) 
....................       { 
....................          skip = 0; 
....................          if (c == '+') 
....................          { 
....................             sign = 0; 
....................             continue; 
....................          }             
....................          else if (c == '-') 
....................          { 
....................             sign = 1; 
....................             continue; 
....................          } 
....................       } 
....................       if (!skip && (c == '.') && !point) 
....................          point = 1; 
....................       else if (!skip && isdigit(c)) 
....................       { 
....................          c -= '0'; 
....................          if (point) 
....................          { 
....................             pow10 = pow10 * 10.0; 
....................             result += (float)c / pow10;    
....................          } 
....................          else 
....................          { 
....................             result = 10.0 * result + (float)c; 
....................          } 
....................       } 
....................       else if (!skip) 
....................          break; 
....................    } 
....................  
....................    if (sign) 
....................       result = -1*result; 
....................        
....................    if(endptr) 
....................    { 
....................       if (ptr) { 
....................          ptr--; 
....................        #IF LONG_POINTERS  
....................          *((int16 *)endptr)= s+ptr;  
....................        #ELSE 
....................          *((char *)endptr)=s+ptr; 
....................        #ENDIF 
....................       } 
....................       else 
....................       { 
....................       #IF LONG_POINTERS 
....................       *((int16 *)endptr)= s;  
....................       #ELSE 
....................       *((char *)endptr)=s; 
....................       #ENDIF 
....................       } 
....................    } 
....................  
....................    return(result); 
.................... } 
....................  
.................... #if defined(__PCD__) 
.................... float48 strtof48(char *s, char *endptr) 
.................... { 
....................    float48 pow10 = 1.0; 
....................    float48 result = 0.0; 
....................    int1 skip = 1, sign = 0, point = 0; 
....................    char c; 
....................    unsigned int8 ptr = 0; 
....................  
....................    if (!s) 
....................       return 0; 
....................  
....................    for(c=s[ptr++]; c!=0; c=s[ptr++]) 
....................    { 
....................       if (skip && !isspace(c)) 
....................       { 
....................          skip = 0; 
....................          if (c == '+') 
....................          { 
....................             sign = 0; 
....................             continue; 
....................          }             
....................          else if (c == '-') 
....................          { 
....................             sign = 1; 
....................             continue; 
....................          } 
....................       } 
....................       if (!skip && (c == '.') && !point) 
....................          point = 1; 
....................       else if (!skip && isdigit(c)) 
....................       { 
....................          c -= '0'; 
....................          if (point) 
....................          { 
....................             pow10 = pow10 * 10.0; 
....................             result += (float48)c / pow10;    
....................          } 
....................          else 
....................          { 
....................             result = 10.0 * result + (float48)c; 
....................          } 
....................       } 
....................       else if (!skip) 
....................          break; 
....................    } 
....................  
....................    if (sign) 
....................       result = -1*result; 
....................        
....................    if(endptr) 
....................    { 
....................       if (ptr) { 
....................          ptr--; 
....................        #IF LONG_POINTERS  
....................          *((int16 *)endptr)= s+ptr;  
....................        #ELSE 
....................          *((char *)endptr)=s+ptr; 
....................        #ENDIF 
....................       } 
....................       else 
....................       { 
....................       #IF LONG_POINTERS 
....................       *((int16 *)endptr)= s;  
....................       #ELSE 
....................       *((char *)endptr)=s; 
....................       #ENDIF 
....................       } 
....................    } 
....................  
....................    return(result); 
.................... } 
....................  
.................... float64 strtod(char *s, char *endptr) 
.................... { 
....................    float64 pow10 = 1.0; 
....................    float64 result = 0.0; 
....................    int1 skip = 1, sign = 0, point = 0; 
....................    char c; 
....................    unsigned int8 ptr = 0; 
....................  
....................    if (!s) 
....................       return 0; 
....................  
....................    for(c=s[ptr++]; c!=0; c=s[ptr++]) 
....................    { 
....................       if (skip && !isspace(c)) 
....................       { 
....................          skip = 0; 
....................          if (c == '+') 
....................          { 
....................             sign = 0; 
....................             continue; 
....................          }             
....................          else if (c == '-') 
....................          { 
....................             sign = 1; 
....................             continue; 
....................          } 
....................       } 
....................       if (!skip && (c == '.') && !point) 
....................          point = 1; 
....................       else if (!skip && isdigit(c)) 
....................       { 
....................          c -= '0'; 
....................          if (point) 
....................          { 
....................             pow10 = pow10 * 10.0; 
....................             result += (float64)c / pow10;    
....................          } 
....................          else 
....................          { 
....................             result = 10.0 * result + (float64)c; 
....................          } 
....................       } 
....................       else if (!skip) 
....................          break; 
....................    } 
....................  
....................    if (sign) 
....................       result = -1*result; 
....................        
....................    if(endptr) 
....................    { 
....................       if (ptr) { 
....................          ptr--; 
....................        #IF LONG_POINTERS  
....................          *((int16 *)endptr)= s+ptr;  
....................        #ELSE 
....................          *((char *)endptr)=s+ptr; 
....................        #ENDIF 
....................       } 
....................       else 
....................       { 
....................       #IF LONG_POINTERS 
....................       *((int16 *)endptr)= s;  
....................       #ELSE 
....................       *((char *)endptr)=s; 
....................       #ENDIF 
....................       } 
....................    } 
....................  
....................    return(result); 
.................... } 
.................... #endif 
....................  
.................... unsigned long strtoul(char *s, char *endptr, signed int base) 
.................... { 
....................    char *sc,*s1,*sd; 
....................    unsigned long x=0; 
....................    char sign; 
....................    char digits[]="0123456789abcdefghijklmnopqstuvwxyz"; 
....................    for(sc=s;isspace(*sc);++sc); 
....................    sign=*sc=='-'||*sc=='+'?*sc++:'+'; 
....................    if(sign=='-' || base <0 || base ==1|| base >36) // invalid base 
....................    goto StrtoulGO; 
....................  
....................    else if (base) 
....................    { 
....................       if(base==16 && *sc =='0'&&(sc[1]=='x' || sc[1]=='X')) 
....................          sc+=2; 
....................       if(base==8 && *sc =='0') 
....................          sc+=1; 
....................       if(base==2 && *sc =='0'&&sc[1]=='b') 
....................          sc+=2; 
....................  
....................    } 
....................    else if(*sc!='0') // base is 0, find base 
....................       base=10; 
....................    else if (sc[1]=='x' || sc[1]=='X') 
....................       base =16,sc+=2; 
....................    else if(sc[1]=='b') 
....................       base=2,sc+=2; 
....................    else 
....................       base=8; 
....................    for (s1=sc;*sc=='0';++sc);// skip leading zeroes 
....................    sd=memchr(digits,tolower(*sc),base); 
....................    for(; sd!=0; ) 
....................    { 
....................       x=x*base+(int16)(sd-digits); 
....................       ++sc; 
....................       sd=memchr(digits,tolower(*sc),base); 
....................    } 
....................    if(s1==sc) 
....................    { 
....................    StrtoulGO: 
....................       if (endptr) 
....................       { 
....................          #IF LONG_POINTERS 
....................          *((int16 *)endptr)= s;  
....................          #ELSE 
....................          *((char *)endptr)=s; 
....................          #ENDIF 
....................          } 
....................    return 0; 
....................    } 
....................    if (endptr) 
....................    { 
....................          #IF LONG_POINTERS 
....................          *((int16 *)endptr)= sc;  
....................          #ELSE 
....................          *((char *)endptr)=sc;  
....................          #ENDIF 
....................    } 
....................    return x; 
.................... } 
....................  
....................  
.................... signed long strtol(char *s,char *endptr, signed int base) 
.................... { 
....................    char *sc,*s1,*sd; 
....................    signed long x=0; 
....................    char sign; 
....................    char digits[]="0123456789abcdefghijklmnopqstuvwxyz"; 
....................    for(sc=s;isspace(*sc);++sc); 
....................    sign=*sc=='-'||*sc=='+'?*sc++:'+'; 
....................    if (base <0 || base ==1|| base >36) // invalid base 
....................    goto StrtolGO; 
....................    else if (base) 
....................    { 
....................       if(base==16 && *sc =='0'&&(sc[1]=='x' || sc[1]=='X')) 
....................          sc+=2; 
....................       if(base==8 && *sc =='0') 
....................          sc+=1; 
....................       if(base==2 && *sc =='0'&&sc[1]=='b') 
....................          sc+=2; 
....................  
....................    } 
....................    else if(*sc!='0') // base is 0, find base 
....................       base=10; 
....................    else if (sc[1]=='x' || sc[1]=='X') 
....................       base =16,sc+=2; 
....................    else if(sc[1]=='b') 
....................       base=2,sc+=2; 
....................    else 
....................       base=8; 
....................    for (s1=sc;*sc=='0';++sc);// skip leading zeroes 
....................  
....................    sd=memchr(digits,tolower(*sc),base); 
....................    for(;sd!=0;) 
....................    { 
....................       x=x*base+(int16)(sd-digits); 
....................       ++sc; 
....................       sd=memchr(digits,tolower(*sc),base); 
....................    } 
....................    if(s1==sc) 
....................    { 
....................    StrtolGO: 
....................       if (endptr) 
....................       { 
....................          #IF LONG_POINTERS 
....................          *((int16 *)endptr)= s;  
....................          #ELSE 
....................          *((char *)endptr)=s; 
....................          #ENDIF 
....................       } 
....................    return 0; 
....................    } 
....................    if(sign=='-') 
....................       x  =-x; 
....................    if (endptr) 
....................    { 
....................         #IF LONG_POINTERS 
....................          *((int16 *)endptr)= sc;  
....................         #ELSE 
....................         *((char *)endptr)=sc; 
....................         #ENDIF 
....................    } 
....................    return x; 
.................... } 
....................  
.................... signed int8 system(char *string) 
.................... { 
....................    return 0; 
.................... } 
....................  
.................... int8 mblen(char *s,size_t n) 
.................... { 
....................    return strlen(s); 
.................... } 
....................  
.................... int8 mbtowc(wchar_t *pwc,char *s,size_t n) 
.................... { 
....................    *pwc=*s; 
....................    return 1; 
.................... } 
....................  
.................... int8 wctomb(char *s,wchar_t wchar) 
.................... { 
....................    *s=wchar; 
....................    return 1; 
.................... } 
....................  
.................... size_t mbstowcs(wchar_t *pwcs,char *s,size_t n) 
.................... { 
....................    strncpy(pwcs,s,n); 
....................    return strlen(pwcs); 
.................... } 
....................  
.................... size_t wcstombs(char *s,wchar_t *pwcs,size_t n) 
.................... { 
....................    strncpy(s,pwcs,n); 
....................    return strlen(s); 
.................... } 
....................  
.................... //--------------------------------------------------------------------------- 
.................... // The random number implementation 
.................... //--------------------------------------------------------------------------- 
....................  
.................... unsigned int32 _Randseed; 
....................  
.................... unsigned int16 rand(void) 
.................... { 
....................    _Randseed = _Randseed * 1103515245 + 12345; 
....................    return ((unsigned int16)(_Randseed >> 16) % RAND_MAX); 
.................... } 
....................  
.................... void srand(unsigned int32 seed) 
.................... { 
....................    _Randseed = seed; 
.................... } 
....................  
.................... //--------------------------------------------------------------------------- 
.................... // Searching and sorting utilities implementation 
.................... //--------------------------------------------------------------------------- 
....................  
.................... #if !defined(__PCD__) 
.................... typedef signed int8 (*_Cmpfun)(char * p1,char * p2);  
.................... #else  
.................... typedef signed int16 (*_Cmpfun)(char * p1,char * p2);  
.................... #endif 
....................  
....................  
....................  
.................... void qsort(char * qdata, unsigned int qitems, unsigned int qsize, _Cmpfun cmp) { 
....................    unsigned int m,j,i,l; 
....................    int1 done; 
....................    unsigned int8 t[16]; 
....................  
....................    m = qitems/2; 
....................    while( m > 0 ) { 
....................      for(j=0; j<(qitems-m); ++j) { 
....................         i = j; 
....................         do 
....................         { 
....................            done=1; 
....................            l = i+m; 
....................            if( (*cmp)(qdata+i*qsize, qdata+l*qsize) > 0 ) { 
....................               memcpy(t, qdata+i*qsize, qsize); 
....................               memcpy(qdata+i*qsize, qdata+l*qsize, qsize); 
....................               memcpy(qdata+l*qsize, t, qsize); 
....................               if(m <= i) 
....................                 i -= m; 
....................                 done = 0; 
....................            } 
....................         } while(!done); 
....................      } 
....................      m = m/2; 
....................    } 
.................... } 
....................  
....................  
.................... char *bsearch(char *key, char *base, size_t num, size_t width,_Cmpfun cmp) 
.................... { 
....................    char *p, *q; 
....................    size_t n; 
....................    size_t pivot; 
....................    signed int val; 
....................  
....................    p = base; 
....................    n = num; 
....................  
....................    while (n > 0) 
....................    { 
....................       pivot = n >> 1; 
....................       q = p + width * pivot; 
....................  
....................       val = (*cmp)(key, q); 
....................  
....................       if (val < 0) 
....................          n = pivot; 
....................       else if (val == 0) 
....................          return ((char *)q); 
....................       else { 
....................          p = q + width; 
....................          n -= pivot + 1; 
....................       } 
....................    } 
....................  
....................    return NULL;      // There's no match 
.................... } 
....................  
....................  
.................... #endif 
....................  
.................... #byte UCON=0xF6D 
.................... #bit USBEN=UCON.3  
.................... #byte UCFG = 0xF6F  
.................... #bit UTRDIS = UCFG.3 
.................... #include <manejo_leds.c> 
.................... void encender_led(int led_numero) 
.................... { 
....................  if (led_numero==0) 
*
137E:  MOVLB  2
1380:  MOVF   x51,F
1382:  BNZ   1394
....................   { 
....................    output_low(PIN_C0); 
1384:  BCF    F94.0
1386:  BCF    F8B.0
....................    output_low(PIN_C1); 
1388:  BCF    F94.1
138A:  BCF    F8B.1
....................    output_low(PIN_D3); 
138C:  BCF    F95.3
138E:  BCF    F8C.3
....................    output_low(PIN_C2); 
1390:  BCF    F94.2
1392:  BCF    F8B.2
....................   } 
....................   if (led_numero==1) 
1394:  DECFSZ x51,W
1396:  BRA    13A4
....................   { 
....................    output_low(PIN_C0); 
1398:  BCF    F94.0
139A:  BCF    F8B.0
....................    output_high(PIN_C1); 
139C:  BCF    F94.1
139E:  BSF    F8B.1
....................    output_float(PIN_D3); 
13A0:  BSF    F95.3
....................    output_float(PIN_C2); 
13A2:  BSF    F94.2
....................   } 
....................   if (led_numero==2) 
13A4:  MOVF   x51,W
13A6:  SUBLW  02
13A8:  BNZ   13B6
....................   { 
....................    output_float(PIN_C0); 
13AA:  BSF    F94.0
....................    output_low(PIN_C1); 
13AC:  BCF    F94.1
13AE:  BCF    F8B.1
....................    output_high(PIN_D3); 
13B0:  BCF    F95.3
13B2:  BSF    F8C.3
....................    output_float(PIN_C2); 
13B4:  BSF    F94.2
....................   } 
....................   if (led_numero==3) 
13B6:  MOVF   x51,W
13B8:  SUBLW  03
13BA:  BNZ   13C8
....................   { 
....................    output_float(PIN_C0); 
13BC:  BSF    F94.0
....................    output_float(PIN_C1); 
13BE:  BSF    F94.1
....................    output_low(PIN_D3); 
13C0:  BCF    F95.3
13C2:  BCF    F8C.3
....................    output_high(PIN_C2); 
13C4:  BCF    F94.2
13C6:  BSF    F8B.2
....................   } 
....................  /* if (led_numero==4) 
....................   { 
....................    output_high(PIN_C0); 
....................    output_low(PIN_C1); 
....................    output_float(PIN_D3); 
....................    output_float(PIN_C2); 
....................   } 
....................   if (led_numero==5) 
....................   { 
....................    output_float(PIN_C0); 
....................    output_high(PIN_C1); 
....................    output_low(PIN_D3); 
....................    output_float(PIN_C2); 
....................   } 
....................   if (led_numero==6) 
....................   { 
....................    output_float(PIN_C0); 
....................    output_float(PIN_C1); 
....................    output_high(PIN_D3); 
....................    output_low(PIN_C2); 
....................   } 
....................   if (led_numero==7) 
....................   { 
....................    output_high(PIN_C0); 
....................    output_float(PIN_C1); 
....................    output_low(PIN_D3); 
....................    output_float(PIN_C2); 
....................   } 
....................   if (led_numero==8) 
....................   { 
....................    output_low(PIN_C0); 
....................    output_float(PIN_C1); 
....................    output_high(PIN_D3); 
....................    output_float(PIN_C2); 
....................   } 
....................   if (led_numero==9) 
....................   { 
....................    output_float(PIN_C0); 
....................    output_low(PIN_C1); 
....................    output_float(PIN_D3); 
....................    output_high(PIN_C2); 
....................   } 
....................   if (led_numero==10) 
....................   { 
....................    output_float(PIN_C0); 
....................    output_high(PIN_C1); 
....................    output_float(PIN_D3); 
....................    output_low(PIN_C2); 
....................   } 
....................   if (led_numero==11) 
....................   { 
....................    output_low(PIN_C0); 
....................    output_float(PIN_C1); 
....................    output_float(PIN_D3); 
....................    output_high(PIN_C2); 
....................   } 
....................   if (led_numero==12) 
....................   { 
....................    output_high(PIN_C0); 
....................    output_float(PIN_C1); 
....................    output_float(PIN_D3); 
....................    output_low(PIN_C2); 
....................   } */ 
.................... } 
13C8:  MOVLB  0
13CA:  RETURN 0
....................  
.................... #include <manejo_pulsadores_reles.c> 
.................... int lee_pulsador(byte pin) 
.................... { 
....................   if (input(pin)==1) return(1); else return (0); 
.................... } 
.................... void activar_rele(byte pin) 
.................... { 
....................  output_high(pin); 
*
0292:  MOVFF  251,252
0296:  MOVLW  01
0298:  MOVLB  2
029A:  MOVWF  x53
029C:  MOVLW  0F
029E:  MOVWF  x55
02A0:  MOVLW  89
02A2:  MOVWF  x54
02A4:  MOVLB  0
02A6:  RCALL  0250
02A8:  MOVFF  251,252
02AC:  MOVLB  2
02AE:  CLRF   x53
02B0:  MOVLW  0F
02B2:  MOVWF  x55
02B4:  MOVLW  92
02B6:  MOVWF  x54
02B8:  MOVLB  0
02BA:  RCALL  0250
....................  } 
02BC:  RETURN 0
.................... void desactivar_rele(byte pin) 
.................... { 
....................  output_low(pin); 
02BE:  MOVFF  251,252
02C2:  MOVLB  2
02C4:  CLRF   x53
02C6:  MOVLW  0F
02C8:  MOVWF  x55
02CA:  MOVLW  89
02CC:  MOVWF  x54
02CE:  MOVLB  0
02D0:  RCALL  0250
02D2:  MOVFF  251,252
02D6:  MOVLB  2
02D8:  CLRF   x53
02DA:  MOVLW  0F
02DC:  MOVWF  x55
02DE:  MOVLW  92
02E0:  MOVWF  x54
02E2:  MOVLB  0
02E4:  RCALL  0250
....................  
.................... } 
02E6:  RETURN 0
....................  
.................... ///////////////////////////////////////////////////////// 
.................... #define minima_placa_1_e  0  // Location in EEPROM 
.................... #define maxima_placa_1_e  1  // Location in EEPROM 
.................... #define minima_placa_2_e  2  // Location in EEPROM 
.................... #define maxima_placa_2_e  3  // Location in EEPROM 
.................... ///////////////////////////////////////////////////////// 
.................... byte segundos; 
.................... byte minutos; 
.................... byte hora; 
.................... byte dia; 
.................... byte mes; 
.................... byte anio; 
.................... byte dow1; 
....................  
.................... int16 valor_humedad_uno[3],valor_humedad_dos[3],valor_humedad_tres[3], 
....................                                                        valor_humedad_cuatro[3]; 
.................... int16  minima[3], maxima[3]; 
.................... int16  minima_anterior[3], maxima_anterior[3]; 
.................... int16 manual[3]; 
.................... int16 manual_anterior[3]; 
.................... int16 hora_inicio[3],hora_fin[3],minutos_inicio[3],minutos_fin[3]; 
.................... int16 valor_uno, valor_dos; 
.................... int   j=0,numero=0,s; 
.................... int   i_rx=0; 
.................... int   dato_completo=0,dat_comp,fin_pal; 
.................... int   tx_placa=1,tx_placa_anterior=1; 
....................  
.................... char dato_tx[30]; 
.................... char dato_rx[40]; 
.................... char dato_aux[5],dato_aux2[5]; 
.................... char cadena[6]; 
....................  
.................... const int STATE_INI    = 0; 
.................... const int STATE_SEND   = 1; 
.................... const int STATE_ACTIVO = 2; 
....................  
.................... const int          STATE_00      =0; 
.................... const int          STATE_01      =1; 
.................... const int          STATE_02      =2; 
.................... const int          STATE_03      =3; 
.................... const int          STATE_04      =4; 
.................... const int          STATE_01_A    =5; 
.................... const int          STATE_02_BCD_0=6; 
.................... const int          STATE_02_BCD_1=7; 
.................... const int          STATE_02_B1   =8; 
.................... const int          STATE_02_B2   =9; 
.................... const int          STATE_02_C0   =10; 
.................... const int          STATE_03_G    =11; 
.................... const int          STATE_03_G0   =12; 
.................... const int          STATE_03_H    =13; 
.................... const int          STATE_03_H0   =14; 
.................... const int          STATE_03_H1   =15; 
.................... const int          STATE_04_A    =16; 
.................... const int          STATE_04_B    =17; 
.................... const int          STATE_04_C    =18; 
.................... const int          STATE_04_D    =19; 
....................  
.................... char dato,dato1[3],dato2[3],dato3[3],dato4[3],dato5[3]; 
.................... byte hora_riego_inicio=0,minutos_riego_inicio=0; 
.................... byte hora_riego_fin=0,minutos_riego_fin=0; 
.................... int16 comando_tx=1, comando_tx_anterior=0; 
....................  
.................... int bandera_modifica=0; 
.................... int estado_siguiente=0; 
.................... int estado_siguiente_maquina_lcd=0; 
.................... int resultado=0; 
.................... int num_veces=0, max_nodo=2; 
.................... int ind1=0,ind2=0,ind3=0,ind4=0,ind5=0; 
.................... int sem1; 
.................... int max_valvula = 2; 
.................... int resultado1=0, resultado2=0; 
.................... int placa=1; 
.................... int salida_1[3],salida_2[3],salida_3[3],salida_4[3]; 
.................... int sube_1[3],sube_2[3],sube_3[3],sube_4[3]; 
.................... int baja_1[3],baja_2[3],baja_3[3],baja_4[3]; 
.................... int x; 
.................... int comando_rx=1; 
.................... int estado_valvula_1_placa_1=0; 
.................... int estado_valvula_2_placa_1=0; 
.................... int estado_valvula_1_placa_2=0; 
.................... int estado_valvula_2_placa_2=0; 
.................... int estado_valvula_1_placa_1_anterior=0; 
.................... int estado_valvula_2_placa_1_anterior=0; 
.................... int estado_valvula_1_placa_2_anterior=0; 
.................... int estado_valvula_2_placa_2_anterior=0; 
.................... int tipo_riego_placa_1=0; 
.................... int tipo_riego_anterior_placa_1=0; 
.................... int tipo_riego_placa_2=0; 
.................... int tipo_riego_anterior_placa_2=0; 
....................  
.................... char string[5]; 
.................... int estado_siguiente_maquina_reportes=0; 
.................... const int ST_INI                                       =0; 
.................... const int ST_ACTIVO                                    =1;  
.................... const int ST_APERTURA_VALVULA_MANUAL                   =2; 
.................... const int ST_APERTURA_VALVULA_HUMEDAD                  =3; 
.................... const int ST_REGISTRO_VALORES_HUMEDAD         =4; 
.................... const int ST_LIMITES_HUMEDAD                           =5; 
.................... const int ST_APERTURA_VALVULA_TIEMPO                   =6; 
....................  
.................... int veces_registro=0; 
.................... int humedad_valvula_uno_placa_uno=0; 
.................... int humedad_valvula_dos_placa_uno=0; 
.................... int humedad_valvula_uno_placa_dos=0; 
.................... int humedad_valvula_dos_placa_dos=0; 
.................... int estado_siguiente_maquina_blue    =  0; 
.................... const int ST_INI_BLUE                  =0; 
.................... const int ST_BLUE_ACTIVO               =1; 
.................... const int ST_BLUE_TX                   =2; 
.................... const int ST_BLUE_RX                   =3; 
.................... char caracter_rx_blue; 
.................... char caracter_anterior_rx_blue; 
.................... int tx_blue,rx_blue; 
.................... char c; 
.................... int leo_dato=0; 
.................... int veces_ver_humedad=0; 
.................... int espera_placa_uno=0; 
.................... int espera_placa_dos=0; 
.................... int max_espera=200; 
.................... int  inicializacion_1=0; 
.................... int  inicializacion_2=0; 
....................  
.................... void guardar_MEM( byte dato, long int direccion) 
.................... { 
....................  short int estado; 
....................  i2c_start();                  //inicializa la transmicion 
*
5D04:  BSF    F93.0
5D06:  MOVLW  05
5D08:  MOVWF  00
5D0A:  DECFSZ 00,F
5D0C:  BRA    5D0A
5D0E:  BSF    F93.1
5D10:  MOVLW  06
5D12:  MOVWF  00
5D14:  DECFSZ 00,F
5D16:  BRA    5D14
5D18:  BCF    F8A.0
5D1A:  BCF    F93.0
5D1C:  MOVLW  05
5D1E:  MOVWF  00
5D20:  DECFSZ 00,F
5D22:  BRA    5D20
5D24:  BCF    F8A.1
5D26:  BCF    F93.1
....................  i2c_write(0xA0);              //escribe la palabra de control(direccion 
5D28:  MOVLW  A0
5D2A:  MOVLB  2
5D2C:  MOVWF  x59
5D2E:  MOVLB  0
5D30:  CALL   1C4C
....................                                //0h+0 para escritura 
....................  i2c_write(direccion>>8);      //parte alta de la direccion a escribir en la 
5D34:  MOVFF  255,257
5D38:  MOVLB  2
5D3A:  CLRF   x58
5D3C:  MOVFF  255,259
5D40:  MOVLB  0
5D42:  CALL   1C4C
....................                                //EEPROM 
....................  i2c_write(direccion);         //parte baja de la direccion a escribir en la 
5D46:  MOVFF  254,259
5D4A:  CALL   1C4C
....................                                //EEPROM 
....................  i2c_write(dato);               //dato a escribir 
5D4E:  MOVFF  253,259
5D52:  CALL   1C4C
....................  i2c_stop();                   //finalizacion de la transmision 
5D56:  BCF    F93.0
5D58:  NOP   
5D5A:  BSF    F93.1
5D5C:  BTFSS  F81.1
5D5E:  BRA    5D5C
5D60:  MOVLW  05
5D62:  MOVWF  00
5D64:  DECFSZ 00,F
5D66:  BRA    5D64
5D68:  BRA    5D6A
5D6A:  NOP   
5D6C:  BSF    F93.0
5D6E:  MOVLW  05
5D70:  MOVWF  00
5D72:  DECFSZ 00,F
5D74:  BRA    5D72
....................  i2c_start();                  //reinicio 
5D76:  BSF    F93.0
5D78:  MOVLW  05
5D7A:  MOVWF  00
5D7C:  DECFSZ 00,F
5D7E:  BRA    5D7C
5D80:  BSF    F93.1
5D82:  MOVLW  06
5D84:  MOVWF  00
5D86:  DECFSZ 00,F
5D88:  BRA    5D86
5D8A:  BCF    F8A.0
5D8C:  BCF    F93.0
5D8E:  MOVLW  05
5D90:  MOVWF  00
5D92:  DECFSZ 00,F
5D94:  BRA    5D92
5D96:  BCF    F8A.1
5D98:  BCF    F93.1
....................  estado=i2c_write(0xa0);       //lectura del bit ACK, para evitar escrituras 
5D9A:  MOVLW  A0
5D9C:  MOVLB  2
5D9E:  MOVWF  x59
5DA0:  MOVLB  0
5DA2:  CALL   1C4C
5DA6:  MOVF   01,W
5DA8:  MOVLB  2
5DAA:  BCF    x56.0
5DAC:  BTFSC  01.0
5DAE:  BSF    x56.0
....................                                //incorrectas 
....................  while (estado==1)             //si es 1 espera a que responda el esclavo 
....................  { 
5DB0:  BTFSS  x56.0
5DB2:  BRA    5DF2
....................    i2c_start(); 
5DB4:  BSF    F93.0
5DB6:  MOVLW  05
5DB8:  MOVWF  00
5DBA:  DECFSZ 00,F
5DBC:  BRA    5DBA
5DBE:  BSF    F93.1
5DC0:  MOVLW  06
5DC2:  MOVWF  00
5DC4:  DECFSZ 00,F
5DC6:  BRA    5DC4
5DC8:  BTFSS  F81.1
5DCA:  BRA    5DC8
5DCC:  BCF    F8A.0
5DCE:  BCF    F93.0
5DD0:  MOVLW  05
5DD2:  MOVWF  00
5DD4:  DECFSZ 00,F
5DD6:  BRA    5DD4
5DD8:  BCF    F8A.1
5DDA:  BCF    F93.1
....................    estado=i2c_write(0xa0); 
5DDC:  MOVLW  A0
5DDE:  MOVWF  x59
5DE0:  MOVLB  0
5DE2:  CALL   1C4C
5DE6:  MOVF   01,W
5DE8:  MOVLB  2
5DEA:  BCF    x56.0
5DEC:  BTFSC  01.0
5DEE:  BSF    x56.0
....................  } 
5DF0:  BRA    5DB0
.................... } 
5DF2:  MOVLB  0
5DF4:  RETURN 0
.................... BYTE leer_MEM(long int direccion) 
.................... { 
....................  byte dato;     
....................  i2c_start();                  //inicializa la transmision 
*
5C50:  BSF    F93.0
5C52:  MOVLW  05
5C54:  MOVWF  00
5C56:  DECFSZ 00,F
5C58:  BRA    5C56
5C5A:  BSF    F93.1
5C5C:  MOVLW  06
5C5E:  MOVWF  00
5C60:  DECFSZ 00,F
5C62:  BRA    5C60
5C64:  BTFSS  F81.1
5C66:  BRA    5C64
5C68:  BCF    F8A.0
5C6A:  BCF    F93.0
5C6C:  MOVLW  05
5C6E:  MOVWF  00
5C70:  DECFSZ 00,F
5C72:  BRA    5C70
5C74:  BCF    F8A.1
5C76:  BCF    F93.1
....................  i2c_write(0xA0);              //escribe la palabra de control (direccion 0h 
5C78:  MOVLW  A0
5C7A:  MOVLB  2
5C7C:  MOVWF  x59
5C7E:  MOVLB  0
5C80:  CALL   1C4C
....................                                //+ 0 para escritura 
....................  i2c_write(direccion>>8);      //parte alta de la direccion a escribir en la 
5C84:  MOVFF  253,255
5C88:  MOVLB  2
5C8A:  CLRF   x56
5C8C:  MOVFF  253,259
5C90:  MOVLB  0
5C92:  CALL   1C4C
....................                                //EEPROM 
....................  i2c_write(direccion);         //parte baja de la direccion a escribir en la 
5C96:  MOVFF  252,259
5C9A:  CALL   1C4C
....................                                //EEPROM 
....................  i2c_start();                  //reinicio 
5C9E:  BSF    F93.0
5CA0:  MOVLW  05
5CA2:  MOVWF  00
5CA4:  DECFSZ 00,F
5CA6:  BRA    5CA4
5CA8:  BSF    F93.1
5CAA:  MOVLW  06
5CAC:  MOVWF  00
5CAE:  DECFSZ 00,F
5CB0:  BRA    5CAE
5CB2:  BTFSS  F81.1
5CB4:  BRA    5CB2
5CB6:  BCF    F8A.0
5CB8:  BCF    F93.0
5CBA:  MOVLW  05
5CBC:  MOVWF  00
5CBE:  DECFSZ 00,F
5CC0:  BRA    5CBE
5CC2:  BCF    F8A.1
5CC4:  BCF    F93.1
....................  i2c_write(0xa1);              //escribe la palabra de control (direccion 0h 
5CC6:  MOVLW  A1
5CC8:  MOVLB  2
5CCA:  MOVWF  x59
5CCC:  MOVLB  0
5CCE:  CALL   1C4C
....................                                //+1 para la lectura) 
....................  dato=i2c_read(0);             //lectura del dato 
5CD2:  CLRF   00
5CD4:  RCALL  59B0
5CD6:  MOVFF  01,254
....................  i2c_stop();                   //finalizacion de la transmision 
5CDA:  BCF    F93.0
5CDC:  NOP   
5CDE:  BSF    F93.1
5CE0:  BTFSS  F81.1
5CE2:  BRA    5CE0
5CE4:  MOVLW  05
5CE6:  MOVWF  00
5CE8:  DECFSZ 00,F
5CEA:  BRA    5CE8
5CEC:  BRA    5CEE
5CEE:  NOP   
5CF0:  BSF    F93.0
5CF2:  MOVLW  05
5CF4:  MOVWF  00
5CF6:  DECFSZ 00,F
5CF8:  BRA    5CF6
....................  return(dato); 
5CFA:  MOVLB  2
5CFC:  MOVFF  254,01
.................... } 
5D00:  MOVLB  0
5D02:  RETURN 0
....................  
.................... #int_ext2 
.................... void int_RB2()  
.................... {     
....................   if(kbhit(PORT2)) 
*
01C0:  BTFSC  F81.2
01C2:  BRA    020E
....................   {  
....................    c=toupper(getc(PORT2)); 
01C4:  BRA    0174
01C6:  MOVFF  01,24F
01CA:  MOVLB  2
01CC:  MOVF   01,W
01CE:  SUBLW  60
01D0:  BC    01DE
01D2:  MOVF   x4F,W
01D4:  SUBLW  7A
01D6:  BNC   01DE
01D8:  MOVF   x4F,W
01DA:  ANDLW  DF
01DC:  BRA    01E0
01DE:  MOVF   x4F,W
01E0:  MOVLB  1
01E2:  MOVWF  xA1
....................    if(c=='L') 
01E4:  MOVF   xA1,W
01E6:  SUBLW  4C
01E8:  BNZ   01F2
....................    { 
....................     tx_blue=1; 
01EA:  MOVLW  01
01EC:  MOVWF  x9F
....................     caracter_rx_blue=c; 
01EE:  MOVFF  1A1,19D
....................    } 
....................    if((c=='E')||(c=='S')||(c=='N')) 
01F2:  MOVF   xA1,W
01F4:  SUBLW  45
01F6:  BZ    0204
01F8:  MOVF   xA1,W
01FA:  SUBLW  53
01FC:  BZ    0204
01FE:  MOVF   xA1,W
0200:  SUBLW  4E
0202:  BNZ   020C
....................    { 
....................     rx_blue=1; 
0204:  MOVLW  01
0206:  MOVWF  xA0
....................     caracter_rx_blue=c; 
0208:  MOVFF  1A1,19D
020C:  MOVLB  0
....................    } 
....................   } 
.................... }         
....................  
020E:  BCF    FF0.1
0210:  GOTO   006C
.................... void interruptrb2_init() 
.................... { 
....................  enable_interrupts(int_ext2); 
*
7A7A:  BSF    FF0.4
....................  ext_int_edge(2, H_TO_L ); 
7A7C:  BCF    FF1.4
.................... } 
7A7E:  GOTO   7E00 (RETURN)
.................... #int_rda 
.................... STATE_STORE() 
.................... { 
....................  dato_rx[i_rx]=getc(); 
*
0214:  CLRF   03
0216:  MOVF   xDB,W
0218:  ADDLW  FF
021A:  MOVWF  FE9
021C:  MOVLW  00
021E:  ADDWFC 03,W
0220:  MOVWF  FEA
0222:  BTFSS  F9E.5
0224:  BRA    0222
0226:  MOVFF  FAE,FEF
....................  if (dato_rx[i_rx]=='&') 
022A:  CLRF   03
022C:  MOVF   xDB,W
022E:  ADDLW  FF
0230:  MOVWF  FE9
0232:  MOVLW  00
0234:  ADDWFC 03,W
0236:  MOVWF  FEA
0238:  MOVF   FEF,W
023A:  SUBLW  26
023C:  BNZ   0246
....................  { 
....................   dato_completo=1; 
023E:  MOVLW  01
0240:  MOVWF  xDC
....................   i_rx=0; 
0242:  CLRF   xDB
....................  } 
....................  else 
0244:  BRA    024A
....................    { 
....................     dato_completo=0; 
0246:  CLRF   xDC
....................     i_rx++; 
0248:  INCF   xDB,F
....................    } 
.................... } 
024A:  BCF    F9E.5
024C:  GOTO   006C
.................... void envio_dato() 
.................... { 
*
0CEA:  MOVLW  3C
0CEC:  MOVLB  2
0CEE:  MOVWF  x52
....................  int i_tx,fin_dto=60; 
....................  for(i_tx=0;i_tx<=fin_dto;i_tx++) 
0CF0:  CLRF   x51
0CF2:  MOVF   x51,W
0CF4:  SUBWF  x52,W
0CF6:  BNC   0D30
....................   { 
....................    putc(dato_tx[i_tx]); 
0CF8:  CLRF   03
0CFA:  MOVF   x51,W
0CFC:  ADDLW  E1
0CFE:  MOVWF  FE9
0D00:  MOVLW  00
0D02:  ADDWFC 03,W
0D04:  MOVWF  FEA
0D06:  MOVFF  FEF,253
0D0A:  MOVFF  253,254
0D0E:  MOVLB  0
0D10:  BRA    0CBE
....................    if (dato_tx[i_tx]=='&') fin_dto=i_tx; 
0D12:  CLRF   03
0D14:  MOVLB  2
0D16:  MOVF   x51,W
0D18:  ADDLW  E1
0D1A:  MOVWF  FE9
0D1C:  MOVLW  00
0D1E:  ADDWFC 03,W
0D20:  MOVWF  FEA
0D22:  MOVF   FEF,W
0D24:  SUBLW  26
0D26:  BNZ   0D2C
0D28:  MOVFF  251,252
....................   } 
0D2C:  INCF   x51,F
0D2E:  BRA    0CF2
.................... } 
0D30:  MOVLB  0
0D32:  RETURN 0
....................  
.................... void armar_trama() 
.................... { 
....................  for(i=0;i<=59;i++) 
*
0550:  CLRF   21
0552:  MOVF   21,W
0554:  SUBLW  3B
0556:  BNC   0560
....................  dato_tx[0]='0'; 
0558:  MOVLW  30
055A:  MOVWF  xE1
055C:  INCF   21,F
055E:  BRA    0552
....................  if (tx_placa==1) strcpy(dato_tx,"00000001"); 
0560:  DECFSZ xDF,W
0562:  BRA    057A
0564:  CLRF   FEA
0566:  MOVLW  E1
0568:  MOVWF  FE9
056A:  MOVLW  00
056C:  RCALL  0122
056E:  TBLRD*-
0570:  TBLRD*+
0572:  MOVF   FF5,W
0574:  MOVWF  FEE
0576:  IORLW  00
0578:  BNZ   0570
....................  if (tx_placa==2) strcpy(dato_tx,"00000010"); 
057A:  MOVF   xDF,W
057C:  SUBLW  02
057E:  BNZ   0596
0580:  CLRF   FEA
0582:  MOVLW  E1
0584:  MOVWF  FE9
0586:  MOVLW  00
0588:  RCALL  013C
058A:  TBLRD*-
058C:  TBLRD*+
058E:  MOVF   FF5,W
0590:  MOVWF  FEE
0592:  IORLW  00
0594:  BNZ   058C
....................  if ((comando_tx==3)||(comando_tx==8)) 
0596:  MOVLB  1
0598:  MOVF   x4B,W
059A:  SUBLW  03
059C:  BNZ   05A2
059E:  MOVF   x4C,F
05A0:  BZ    05B0
05A2:  MOVF   x4B,W
05A4:  SUBLW  08
05A6:  BTFSS  FD8.2
05A8:  BRA    06A4
05AA:  MOVF   x4C,F
05AC:  BTFSS  FD8.2
05AE:  BRA    06A4
....................  { 
....................   sprintf(cadena,"%lu",comando_tx); 
05B0:  MOVLW  01
05B2:  MOVLB  0
05B4:  MOVWF  x72
05B6:  MOVLW  31
05B8:  MOVWF  x71
05BA:  MOVLW  10
05BC:  MOVWF  FE9
05BE:  MOVFF  14C,254
05C2:  MOVFF  14B,253
05C6:  RCALL  037A
....................   strcat(dato_tx,cadena); 
05C8:  MOVLB  2
05CA:  CLRF   x52
05CC:  MOVLW  E1
05CE:  MOVWF  x51
05D0:  MOVLW  01
05D2:  MOVWF  x54
05D4:  MOVLW  31
05D6:  MOVWF  x53
05D8:  MOVLB  0
05DA:  RCALL  0436
....................   sprintf(cadena,"+"); 
05DC:  MOVLW  01
05DE:  MOVWF  x72
05E0:  MOVLW  31
05E2:  MOVWF  x71
05E4:  MOVLW  2B
05E6:  MOVLB  2
05E8:  MOVWF  x5C
05EA:  MOVLB  0
05EC:  RCALL  035A
....................   strcat(dato_tx,cadena); 
05EE:  MOVLB  2
05F0:  CLRF   x52
05F2:  MOVLW  E1
05F4:  MOVWF  x51
05F6:  MOVLW  01
05F8:  MOVWF  x54
05FA:  MOVLW  31
05FC:  MOVWF  x53
05FE:  MOVLB  0
0600:  RCALL  0436
....................   sprintf(cadena,"%u",hora); 
0602:  MOVLW  01
0604:  MOVWF  x72
0606:  MOVLW  31
0608:  MOVWF  x71
060A:  MOVFF  7B,251
060E:  MOVLW  1B
0610:  MOVLB  2
0612:  MOVWF  x52
0614:  MOVLB  0
0616:  RCALL  04D4
....................   strcat(dato_tx,cadena); 
0618:  MOVLB  2
061A:  CLRF   x52
061C:  MOVLW  E1
061E:  MOVWF  x51
0620:  MOVLW  01
0622:  MOVWF  x54
0624:  MOVLW  31
0626:  MOVWF  x53
0628:  MOVLB  0
062A:  RCALL  0436
....................   sprintf(cadena,"+"); 
062C:  MOVLW  01
062E:  MOVWF  x72
0630:  MOVLW  31
0632:  MOVWF  x71
0634:  MOVLW  2B
0636:  MOVLB  2
0638:  MOVWF  x5C
063A:  MOVLB  0
063C:  RCALL  035A
....................   strcat(dato_tx,cadena); 
063E:  MOVLB  2
0640:  CLRF   x52
0642:  MOVLW  E1
0644:  MOVWF  x51
0646:  MOVLW  01
0648:  MOVWF  x54
064A:  MOVLW  31
064C:  MOVWF  x53
064E:  MOVLB  0
0650:  RCALL  0436
....................   sprintf(cadena,"%u",minutos); 
0652:  MOVLW  01
0654:  MOVWF  x72
0656:  MOVLW  31
0658:  MOVWF  x71
065A:  MOVFF  7A,251
065E:  MOVLW  1B
0660:  MOVLB  2
0662:  MOVWF  x52
0664:  MOVLB  0
0666:  RCALL  04D4
....................   strcat(dato_tx,cadena); 
0668:  MOVLB  2
066A:  CLRF   x52
066C:  MOVLW  E1
066E:  MOVWF  x51
0670:  MOVLW  01
0672:  MOVWF  x54
0674:  MOVLW  31
0676:  MOVWF  x53
0678:  MOVLB  0
067A:  RCALL  0436
....................   sprintf(cadena,"&"); 
067C:  MOVLW  01
067E:  MOVWF  x72
0680:  MOVLW  31
0682:  MOVWF  x71
0684:  MOVLW  26
0686:  MOVLB  2
0688:  MOVWF  x5C
068A:  MOVLB  0
068C:  RCALL  035A
....................   strcat(dato_tx,cadena); 
068E:  MOVLB  2
0690:  CLRF   x52
0692:  MOVLW  E1
0694:  MOVWF  x51
0696:  MOVLW  01
0698:  MOVWF  x54
069A:  MOVLW  31
069C:  MOVWF  x53
069E:  MOVLB  0
06A0:  RCALL  0436
06A2:  MOVLB  1
....................  } 
....................  if (comando_tx==2) 
06A4:  MOVF   x4B,W
06A6:  SUBLW  02
06A8:  BTFSS  FD8.2
06AA:  BRA    094E
06AC:  MOVF   x4C,F
06AE:  BTFSS  FD8.2
06B0:  BRA    094E
....................  { 
....................   sprintf(cadena,"%lu",comando_tx); 
06B2:  MOVLW  01
06B4:  MOVLB  0
06B6:  MOVWF  x72
06B8:  MOVLW  31
06BA:  MOVWF  x71
06BC:  MOVLW  10
06BE:  MOVWF  FE9
06C0:  MOVFF  14C,254
06C4:  MOVFF  14B,253
06C8:  RCALL  037A
....................   strcat(dato_tx,cadena); 
06CA:  MOVLB  2
06CC:  CLRF   x52
06CE:  MOVLW  E1
06D0:  MOVWF  x51
06D2:  MOVLW  01
06D4:  MOVWF  x54
06D6:  MOVLW  31
06D8:  MOVWF  x53
06DA:  MOVLB  0
06DC:  RCALL  0436
....................   sprintf(cadena,"+"); 
06DE:  MOVLW  01
06E0:  MOVWF  x72
06E2:  MOVLW  31
06E4:  MOVWF  x71
06E6:  MOVLW  2B
06E8:  MOVLB  2
06EA:  MOVWF  x5C
06EC:  MOVLB  0
06EE:  RCALL  035A
....................   strcat(dato_tx,cadena); 
06F0:  MOVLB  2
06F2:  CLRF   x52
06F4:  MOVLW  E1
06F6:  MOVWF  x51
06F8:  MOVLW  01
06FA:  MOVWF  x54
06FC:  MOVLW  31
06FE:  MOVWF  x53
0700:  MOVLB  0
0702:  RCALL  0436
....................   sprintf(cadena,"%u",hora); 
0704:  MOVLW  01
0706:  MOVWF  x72
0708:  MOVLW  31
070A:  MOVWF  x71
070C:  MOVFF  7B,251
0710:  MOVLW  1B
0712:  MOVLB  2
0714:  MOVWF  x52
0716:  MOVLB  0
0718:  RCALL  04D4
....................   strcat(dato_tx,cadena); 
071A:  MOVLB  2
071C:  CLRF   x52
071E:  MOVLW  E1
0720:  MOVWF  x51
0722:  MOVLW  01
0724:  MOVWF  x54
0726:  MOVLW  31
0728:  MOVWF  x53
072A:  MOVLB  0
072C:  RCALL  0436
....................   sprintf(cadena,"+"); 
072E:  MOVLW  01
0730:  MOVWF  x72
0732:  MOVLW  31
0734:  MOVWF  x71
0736:  MOVLW  2B
0738:  MOVLB  2
073A:  MOVWF  x5C
073C:  MOVLB  0
073E:  RCALL  035A
....................   strcat(dato_tx,cadena); 
0740:  MOVLB  2
0742:  CLRF   x52
0744:  MOVLW  E1
0746:  MOVWF  x51
0748:  MOVLW  01
074A:  MOVWF  x54
074C:  MOVLW  31
074E:  MOVWF  x53
0750:  MOVLB  0
0752:  RCALL  0436
....................   sprintf(cadena,"%u",minutos); 
0754:  MOVLW  01
0756:  MOVWF  x72
0758:  MOVLW  31
075A:  MOVWF  x71
075C:  MOVFF  7A,251
0760:  MOVLW  1B
0762:  MOVLB  2
0764:  MOVWF  x52
0766:  MOVLB  0
0768:  RCALL  04D4
....................   strcat(dato_tx,cadena); 
076A:  MOVLB  2
076C:  CLRF   x52
076E:  MOVLW  E1
0770:  MOVWF  x51
0772:  MOVLW  01
0774:  MOVWF  x54
0776:  MOVLW  31
0778:  MOVWF  x53
077A:  MOVLB  0
077C:  RCALL  0436
....................   sprintf(cadena,"+"); 
077E:  MOVLW  01
0780:  MOVWF  x72
0782:  MOVLW  31
0784:  MOVWF  x71
0786:  MOVLW  2B
0788:  MOVLB  2
078A:  MOVWF  x5C
078C:  MOVLB  0
078E:  RCALL  035A
....................   strcat(dato_tx,cadena); 
0790:  MOVLB  2
0792:  CLRF   x52
0794:  MOVLW  E1
0796:  MOVWF  x51
0798:  MOVLW  01
079A:  MOVWF  x54
079C:  MOVLW  31
079E:  MOVWF  x53
07A0:  MOVLB  0
07A2:  RCALL  0436
....................   sprintf(cadena,"%lu",hora_inicio[tx_placa]); 
07A4:  BCF    FD8.0
07A6:  RLCF   xDF,W
07A8:  CLRF   03
07AA:  ADDLW  BC
07AC:  MOVWF  FE9
07AE:  MOVLW  00
07B0:  ADDWFC 03,W
07B2:  MOVWF  FEA
07B4:  MOVFF  FEC,252
07B8:  MOVF   FED,F
07BA:  MOVFF  FEF,251
07BE:  MOVLW  01
07C0:  MOVWF  x72
07C2:  MOVLW  31
07C4:  MOVWF  x71
07C6:  MOVLW  10
07C8:  MOVWF  FE9
07CA:  MOVFF  252,254
07CE:  MOVFF  251,253
07D2:  RCALL  037A
....................   strcat(dato_tx,cadena); 
07D4:  MOVLB  2
07D6:  CLRF   x52
07D8:  MOVLW  E1
07DA:  MOVWF  x51
07DC:  MOVLW  01
07DE:  MOVWF  x54
07E0:  MOVLW  31
07E2:  MOVWF  x53
07E4:  MOVLB  0
07E6:  RCALL  0436
....................   sprintf(cadena,"+"); 
07E8:  MOVLW  01
07EA:  MOVWF  x72
07EC:  MOVLW  31
07EE:  MOVWF  x71
07F0:  MOVLW  2B
07F2:  MOVLB  2
07F4:  MOVWF  x5C
07F6:  MOVLB  0
07F8:  RCALL  035A
....................   strcat(dato_tx,cadena); 
07FA:  MOVLB  2
07FC:  CLRF   x52
07FE:  MOVLW  E1
0800:  MOVWF  x51
0802:  MOVLW  01
0804:  MOVWF  x54
0806:  MOVLW  31
0808:  MOVWF  x53
080A:  MOVLB  0
080C:  RCALL  0436
....................   sprintf(cadena,"%lu",minutos_inicio[tx_placa]); 
080E:  BCF    FD8.0
0810:  RLCF   xDF,W
0812:  CLRF   03
0814:  ADDLW  C8
0816:  MOVWF  FE9
0818:  MOVLW  00
081A:  ADDWFC 03,W
081C:  MOVWF  FEA
081E:  MOVFF  FEC,252
0822:  MOVF   FED,F
0824:  MOVFF  FEF,251
0828:  MOVLW  01
082A:  MOVWF  x72
082C:  MOVLW  31
082E:  MOVWF  x71
0830:  MOVLW  10
0832:  MOVWF  FE9
0834:  MOVFF  252,254
0838:  MOVFF  251,253
083C:  RCALL  037A
....................   strcat(dato_tx,cadena); 
083E:  MOVLB  2
0840:  CLRF   x52
0842:  MOVLW  E1
0844:  MOVWF  x51
0846:  MOVLW  01
0848:  MOVWF  x54
084A:  MOVLW  31
084C:  MOVWF  x53
084E:  MOVLB  0
0850:  RCALL  0436
....................   sprintf(cadena,"+"); 
0852:  MOVLW  01
0854:  MOVWF  x72
0856:  MOVLW  31
0858:  MOVWF  x71
085A:  MOVLW  2B
085C:  MOVLB  2
085E:  MOVWF  x5C
0860:  MOVLB  0
0862:  RCALL  035A
....................   strcat(dato_tx,cadena); 
0864:  MOVLB  2
0866:  CLRF   x52
0868:  MOVLW  E1
086A:  MOVWF  x51
086C:  MOVLW  01
086E:  MOVWF  x54
0870:  MOVLW  31
0872:  MOVWF  x53
0874:  MOVLB  0
0876:  RCALL  0436
....................   sprintf(cadena,"%lu",hora_fin[tx_placa]); 
0878:  BCF    FD8.0
087A:  RLCF   xDF,W
087C:  CLRF   03
087E:  ADDLW  C2
0880:  MOVWF  FE9
0882:  MOVLW  00
0884:  ADDWFC 03,W
0886:  MOVWF  FEA
0888:  MOVFF  FEC,252
088C:  MOVF   FED,F
088E:  MOVFF  FEF,251
0892:  MOVLW  01
0894:  MOVWF  x72
0896:  MOVLW  31
0898:  MOVWF  x71
089A:  MOVLW  10
089C:  MOVWF  FE9
089E:  MOVFF  252,254
08A2:  MOVFF  251,253
08A6:  RCALL  037A
....................   strcat(dato_tx,cadena); 
08A8:  MOVLB  2
08AA:  CLRF   x52
08AC:  MOVLW  E1
08AE:  MOVWF  x51
08B0:  MOVLW  01
08B2:  MOVWF  x54
08B4:  MOVLW  31
08B6:  MOVWF  x53
08B8:  MOVLB  0
08BA:  RCALL  0436
....................   sprintf(cadena,"+"); 
08BC:  MOVLW  01
08BE:  MOVWF  x72
08C0:  MOVLW  31
08C2:  MOVWF  x71
08C4:  MOVLW  2B
08C6:  MOVLB  2
08C8:  MOVWF  x5C
08CA:  MOVLB  0
08CC:  RCALL  035A
....................   strcat(dato_tx,cadena); 
08CE:  MOVLB  2
08D0:  CLRF   x52
08D2:  MOVLW  E1
08D4:  MOVWF  x51
08D6:  MOVLW  01
08D8:  MOVWF  x54
08DA:  MOVLW  31
08DC:  MOVWF  x53
08DE:  MOVLB  0
08E0:  RCALL  0436
....................   sprintf(cadena,"%lu",minutos_fin[tx_placa]); 
08E2:  BCF    FD8.0
08E4:  RLCF   xDF,W
08E6:  CLRF   03
08E8:  ADDLW  CE
08EA:  MOVWF  FE9
08EC:  MOVLW  00
08EE:  ADDWFC 03,W
08F0:  MOVWF  FEA
08F2:  MOVFF  FEC,252
08F6:  MOVF   FED,F
08F8:  MOVFF  FEF,251
08FC:  MOVLW  01
08FE:  MOVWF  x72
0900:  MOVLW  31
0902:  MOVWF  x71
0904:  MOVLW  10
0906:  MOVWF  FE9
0908:  MOVFF  252,254
090C:  MOVFF  251,253
0910:  RCALL  037A
....................   strcat(dato_tx,cadena); 
0912:  MOVLB  2
0914:  CLRF   x52
0916:  MOVLW  E1
0918:  MOVWF  x51
091A:  MOVLW  01
091C:  MOVWF  x54
091E:  MOVLW  31
0920:  MOVWF  x53
0922:  MOVLB  0
0924:  RCALL  0436
....................   sprintf(cadena,"&"); 
0926:  MOVLW  01
0928:  MOVWF  x72
092A:  MOVLW  31
092C:  MOVWF  x71
092E:  MOVLW  26
0930:  MOVLB  2
0932:  MOVWF  x5C
0934:  MOVLB  0
0936:  RCALL  035A
....................   strcat(dato_tx,cadena); 
0938:  MOVLB  2
093A:  CLRF   x52
093C:  MOVLW  E1
093E:  MOVWF  x51
0940:  MOVLW  01
0942:  MOVWF  x54
0944:  MOVLW  31
0946:  MOVWF  x53
0948:  MOVLB  0
094A:  RCALL  0436
094C:  MOVLB  1
....................  } 
....................  if (comando_tx==4) 
094E:  MOVF   x4B,W
0950:  SUBLW  04
0952:  BTFSS  FD8.2
0954:  BRA    0ABA
0956:  MOVF   x4C,F
0958:  BTFSS  FD8.2
095A:  BRA    0ABA
....................  { 
....................   sprintf(cadena,"%lu",comando_tx); 
095C:  MOVLW  01
095E:  MOVLB  0
0960:  MOVWF  x72
0962:  MOVLW  31
0964:  MOVWF  x71
0966:  MOVLW  10
0968:  MOVWF  FE9
096A:  MOVFF  14C,254
096E:  MOVFF  14B,253
0972:  RCALL  037A
....................   strcat(dato_tx,cadena); 
0974:  MOVLB  2
0976:  CLRF   x52
0978:  MOVLW  E1
097A:  MOVWF  x51
097C:  MOVLW  01
097E:  MOVWF  x54
0980:  MOVLW  31
0982:  MOVWF  x53
0984:  MOVLB  0
0986:  RCALL  0436
....................   sprintf(cadena,"+"); 
0988:  MOVLW  01
098A:  MOVWF  x72
098C:  MOVLW  31
098E:  MOVWF  x71
0990:  MOVLW  2B
0992:  MOVLB  2
0994:  MOVWF  x5C
0996:  MOVLB  0
0998:  RCALL  035A
....................   strcat(dato_tx,cadena); 
099A:  MOVLB  2
099C:  CLRF   x52
099E:  MOVLW  E1
09A0:  MOVWF  x51
09A2:  MOVLW  01
09A4:  MOVWF  x54
09A6:  MOVLW  31
09A8:  MOVWF  x53
09AA:  MOVLB  0
09AC:  RCALL  0436
....................   sprintf(cadena,"%u",hora); 
09AE:  MOVLW  01
09B0:  MOVWF  x72
09B2:  MOVLW  31
09B4:  MOVWF  x71
09B6:  MOVFF  7B,251
09BA:  MOVLW  1B
09BC:  MOVLB  2
09BE:  MOVWF  x52
09C0:  MOVLB  0
09C2:  RCALL  04D4
....................   strcat(dato_tx,cadena); 
09C4:  MOVLB  2
09C6:  CLRF   x52
09C8:  MOVLW  E1
09CA:  MOVWF  x51
09CC:  MOVLW  01
09CE:  MOVWF  x54
09D0:  MOVLW  31
09D2:  MOVWF  x53
09D4:  MOVLB  0
09D6:  RCALL  0436
....................   sprintf(cadena,"+"); 
09D8:  MOVLW  01
09DA:  MOVWF  x72
09DC:  MOVLW  31
09DE:  MOVWF  x71
09E0:  MOVLW  2B
09E2:  MOVLB  2
09E4:  MOVWF  x5C
09E6:  MOVLB  0
09E8:  RCALL  035A
....................   strcat(dato_tx,cadena); 
09EA:  MOVLB  2
09EC:  CLRF   x52
09EE:  MOVLW  E1
09F0:  MOVWF  x51
09F2:  MOVLW  01
09F4:  MOVWF  x54
09F6:  MOVLW  31
09F8:  MOVWF  x53
09FA:  MOVLB  0
09FC:  RCALL  0436
....................   sprintf(cadena,"%u",minutos); 
09FE:  MOVLW  01
0A00:  MOVWF  x72
0A02:  MOVLW  31
0A04:  MOVWF  x71
0A06:  MOVFF  7A,251
0A0A:  MOVLW  1B
0A0C:  MOVLB  2
0A0E:  MOVWF  x52
0A10:  MOVLB  0
0A12:  RCALL  04D4
....................   strcat(dato_tx,cadena); 
0A14:  MOVLB  2
0A16:  CLRF   x52
0A18:  MOVLW  E1
0A1A:  MOVWF  x51
0A1C:  MOVLW  01
0A1E:  MOVWF  x54
0A20:  MOVLW  31
0A22:  MOVWF  x53
0A24:  MOVLB  0
0A26:  RCALL  0436
....................   sprintf(cadena,"+"); 
0A28:  MOVLW  01
0A2A:  MOVWF  x72
0A2C:  MOVLW  31
0A2E:  MOVWF  x71
0A30:  MOVLW  2B
0A32:  MOVLB  2
0A34:  MOVWF  x5C
0A36:  MOVLB  0
0A38:  RCALL  035A
....................   strcat(dato_tx,cadena); 
0A3A:  MOVLB  2
0A3C:  CLRF   x52
0A3E:  MOVLW  E1
0A40:  MOVWF  x51
0A42:  MOVLW  01
0A44:  MOVWF  x54
0A46:  MOVLW  31
0A48:  MOVWF  x53
0A4A:  MOVLB  0
0A4C:  RCALL  0436
....................   sprintf(cadena,"%lu",manual[tx_placa]); 
0A4E:  BCF    FD8.0
0A50:  RLCF   xDF,W
0A52:  CLRF   03
0A54:  ADDLW  B0
0A56:  MOVWF  FE9
0A58:  MOVLW  00
0A5A:  ADDWFC 03,W
0A5C:  MOVWF  FEA
0A5E:  MOVFF  FEC,252
0A62:  MOVF   FED,F
0A64:  MOVFF  FEF,251
0A68:  MOVLW  01
0A6A:  MOVWF  x72
0A6C:  MOVLW  31
0A6E:  MOVWF  x71
0A70:  MOVLW  10
0A72:  MOVWF  FE9
0A74:  MOVFF  252,254
0A78:  MOVFF  251,253
0A7C:  RCALL  037A
....................   strcat(dato_tx,cadena); 
0A7E:  MOVLB  2
0A80:  CLRF   x52
0A82:  MOVLW  E1
0A84:  MOVWF  x51
0A86:  MOVLW  01
0A88:  MOVWF  x54
0A8A:  MOVLW  31
0A8C:  MOVWF  x53
0A8E:  MOVLB  0
0A90:  RCALL  0436
....................   sprintf(cadena,"&"); 
0A92:  MOVLW  01
0A94:  MOVWF  x72
0A96:  MOVLW  31
0A98:  MOVWF  x71
0A9A:  MOVLW  26
0A9C:  MOVLB  2
0A9E:  MOVWF  x5C
0AA0:  MOVLB  0
0AA2:  RCALL  035A
....................   strcat(dato_tx,cadena); 
0AA4:  MOVLB  2
0AA6:  CLRF   x52
0AA8:  MOVLW  E1
0AAA:  MOVWF  x51
0AAC:  MOVLW  01
0AAE:  MOVWF  x54
0AB0:  MOVLW  31
0AB2:  MOVWF  x53
0AB4:  MOVLB  0
0AB6:  RCALL  0436
0AB8:  MOVLB  1
....................  } 
....................  if (comando_tx==1) 
0ABA:  DECFSZ x4B,W
0ABC:  BRA    0C9A
0ABE:  MOVF   x4C,F
0AC0:  BTFSS  FD8.2
0AC2:  BRA    0C9A
....................  { 
....................   sprintf(cadena,"%lu",comando_tx); 
0AC4:  MOVLW  01
0AC6:  MOVLB  0
0AC8:  MOVWF  x72
0ACA:  MOVLW  31
0ACC:  MOVWF  x71
0ACE:  MOVLW  10
0AD0:  MOVWF  FE9
0AD2:  MOVFF  14C,254
0AD6:  MOVFF  14B,253
0ADA:  RCALL  037A
....................   strcat(dato_tx,cadena); 
0ADC:  MOVLB  2
0ADE:  CLRF   x52
0AE0:  MOVLW  E1
0AE2:  MOVWF  x51
0AE4:  MOVLW  01
0AE6:  MOVWF  x54
0AE8:  MOVLW  31
0AEA:  MOVWF  x53
0AEC:  MOVLB  0
0AEE:  RCALL  0436
....................   sprintf(cadena,"+"); 
0AF0:  MOVLW  01
0AF2:  MOVWF  x72
0AF4:  MOVLW  31
0AF6:  MOVWF  x71
0AF8:  MOVLW  2B
0AFA:  MOVLB  2
0AFC:  MOVWF  x5C
0AFE:  MOVLB  0
0B00:  RCALL  035A
....................   strcat(dato_tx,cadena); 
0B02:  MOVLB  2
0B04:  CLRF   x52
0B06:  MOVLW  E1
0B08:  MOVWF  x51
0B0A:  MOVLW  01
0B0C:  MOVWF  x54
0B0E:  MOVLW  31
0B10:  MOVWF  x53
0B12:  MOVLB  0
0B14:  RCALL  0436
....................   sprintf(cadena,"%u",hora); 
0B16:  MOVLW  01
0B18:  MOVWF  x72
0B1A:  MOVLW  31
0B1C:  MOVWF  x71
0B1E:  MOVFF  7B,251
0B22:  MOVLW  1B
0B24:  MOVLB  2
0B26:  MOVWF  x52
0B28:  MOVLB  0
0B2A:  RCALL  04D4
....................   strcat(dato_tx,cadena); 
0B2C:  MOVLB  2
0B2E:  CLRF   x52
0B30:  MOVLW  E1
0B32:  MOVWF  x51
0B34:  MOVLW  01
0B36:  MOVWF  x54
0B38:  MOVLW  31
0B3A:  MOVWF  x53
0B3C:  MOVLB  0
0B3E:  RCALL  0436
....................   sprintf(cadena,"+"); 
0B40:  MOVLW  01
0B42:  MOVWF  x72
0B44:  MOVLW  31
0B46:  MOVWF  x71
0B48:  MOVLW  2B
0B4A:  MOVLB  2
0B4C:  MOVWF  x5C
0B4E:  MOVLB  0
0B50:  RCALL  035A
....................   strcat(dato_tx,cadena); 
0B52:  MOVLB  2
0B54:  CLRF   x52
0B56:  MOVLW  E1
0B58:  MOVWF  x51
0B5A:  MOVLW  01
0B5C:  MOVWF  x54
0B5E:  MOVLW  31
0B60:  MOVWF  x53
0B62:  MOVLB  0
0B64:  RCALL  0436
....................   sprintf(cadena,"%u",minutos); 
0B66:  MOVLW  01
0B68:  MOVWF  x72
0B6A:  MOVLW  31
0B6C:  MOVWF  x71
0B6E:  MOVFF  7A,251
0B72:  MOVLW  1B
0B74:  MOVLB  2
0B76:  MOVWF  x52
0B78:  MOVLB  0
0B7A:  RCALL  04D4
....................   strcat(dato_tx,cadena); 
0B7C:  MOVLB  2
0B7E:  CLRF   x52
0B80:  MOVLW  E1
0B82:  MOVWF  x51
0B84:  MOVLW  01
0B86:  MOVWF  x54
0B88:  MOVLW  31
0B8A:  MOVWF  x53
0B8C:  MOVLB  0
0B8E:  RCALL  0436
....................   sprintf(cadena,"+"); 
0B90:  MOVLW  01
0B92:  MOVWF  x72
0B94:  MOVLW  31
0B96:  MOVWF  x71
0B98:  MOVLW  2B
0B9A:  MOVLB  2
0B9C:  MOVWF  x5C
0B9E:  MOVLB  0
0BA0:  CALL   035A
....................   strcat(dato_tx,cadena); 
0BA4:  MOVLB  2
0BA6:  CLRF   x52
0BA8:  MOVLW  E1
0BAA:  MOVWF  x51
0BAC:  MOVLW  01
0BAE:  MOVWF  x54
0BB0:  MOVLW  31
0BB2:  MOVWF  x53
0BB4:  MOVLB  0
0BB6:  RCALL  0436
....................   sprintf(cadena,"%lu",minima[tx_placa]); 
0BB8:  BCF    FD8.0
0BBA:  RLCF   xDF,W
0BBC:  CLRF   03
0BBE:  ADDLW  98
0BC0:  MOVWF  FE9
0BC2:  MOVLW  00
0BC4:  ADDWFC 03,W
0BC6:  MOVWF  FEA
0BC8:  MOVFF  FEC,252
0BCC:  MOVF   FED,F
0BCE:  MOVFF  FEF,251
0BD2:  MOVLW  01
0BD4:  MOVWF  x72
0BD6:  MOVLW  31
0BD8:  MOVWF  x71
0BDA:  MOVLW  10
0BDC:  MOVWF  FE9
0BDE:  MOVFF  252,254
0BE2:  MOVFF  251,253
0BE6:  CALL   037A
....................   strcat(dato_tx,cadena); 
0BEA:  MOVLB  2
0BEC:  CLRF   x52
0BEE:  MOVLW  E1
0BF0:  MOVWF  x51
0BF2:  MOVLW  01
0BF4:  MOVWF  x54
0BF6:  MOVLW  31
0BF8:  MOVWF  x53
0BFA:  MOVLB  0
0BFC:  RCALL  0436
....................   sprintf(cadena,"+"); 
0BFE:  MOVLW  01
0C00:  MOVWF  x72
0C02:  MOVLW  31
0C04:  MOVWF  x71
0C06:  MOVLW  2B
0C08:  MOVLB  2
0C0A:  MOVWF  x5C
0C0C:  MOVLB  0
0C0E:  CALL   035A
....................   strcat(dato_tx,cadena); 
0C12:  MOVLB  2
0C14:  CLRF   x52
0C16:  MOVLW  E1
0C18:  MOVWF  x51
0C1A:  MOVLW  01
0C1C:  MOVWF  x54
0C1E:  MOVLW  31
0C20:  MOVWF  x53
0C22:  MOVLB  0
0C24:  RCALL  0436
....................   sprintf(cadena,"%lu",maxima[tx_placa]); 
0C26:  BCF    FD8.0
0C28:  RLCF   xDF,W
0C2A:  CLRF   03
0C2C:  ADDLW  9E
0C2E:  MOVWF  FE9
0C30:  MOVLW  00
0C32:  ADDWFC 03,W
0C34:  MOVWF  FEA
0C36:  MOVFF  FEC,252
0C3A:  MOVF   FED,F
0C3C:  MOVFF  FEF,251
0C40:  MOVLW  01
0C42:  MOVWF  x72
0C44:  MOVLW  31
0C46:  MOVWF  x71
0C48:  MOVLW  10
0C4A:  MOVWF  FE9
0C4C:  MOVFF  252,254
0C50:  MOVFF  251,253
0C54:  CALL   037A
....................   strcat(dato_tx,cadena); 
0C58:  MOVLB  2
0C5A:  CLRF   x52
0C5C:  MOVLW  E1
0C5E:  MOVWF  x51
0C60:  MOVLW  01
0C62:  MOVWF  x54
0C64:  MOVLW  31
0C66:  MOVWF  x53
0C68:  MOVLB  0
0C6A:  CALL   0436
....................   sprintf(cadena,"&"); 
0C6E:  MOVLW  01
0C70:  MOVWF  x72
0C72:  MOVLW  31
0C74:  MOVWF  x71
0C76:  MOVLW  26
0C78:  MOVLB  2
0C7A:  MOVWF  x5C
0C7C:  MOVLB  0
0C7E:  CALL   035A
....................   strcat(dato_tx,cadena); 
0C82:  MOVLB  2
0C84:  CLRF   x52
0C86:  MOVLW  E1
0C88:  MOVWF  x51
0C8A:  MOVLW  01
0C8C:  MOVWF  x54
0C8E:  MOVLW  31
0C90:  MOVWF  x53
0C92:  MOVLB  0
0C94:  CALL   0436
0C98:  MOVLB  1
....................  } 
.................... } 
0C9A:  MOVLB  0
0C9C:  RETURN 0
....................  
.................... void deco_tramaRx() 
.................... {    
....................      numero=0; 
*
0FFC:  CLRF   xD9
....................      fin_pal=50;dat_comp=0; 
0FFE:  MOVLW  32
1000:  MOVWF  xDE
1002:  CLRF   xDD
....................      for(i=8;i<=fin_pal;i++) 
1004:  MOVLW  08
1006:  MOVWF  21
1008:  MOVF   21,W
100A:  SUBWF  xDE,W
100C:  BTFSS  FD8.0
100E:  BRA    137A
....................      { 
....................       if((dato_rx[i]=='&')&&(dat_comp==1)) 
1010:  CLRF   03
1012:  MOVF   21,W
1014:  ADDLW  FF
1016:  MOVWF  FE9
1018:  MOVLW  00
101A:  ADDWFC 03,W
101C:  MOVWF  FEA
101E:  MOVF   FEF,W
1020:  SUBLW  26
1022:  BNZ   1030
1024:  DECFSZ xDD,W
1026:  BRA    1030
....................       { 
....................        dat_comp=1; 
1028:  MOVLW  01
102A:  MOVWF  xDD
....................        fin_pal=i; 
102C:  MOVFF  21,DE
....................       } 
....................       if ((dato_rx[i]!='+')&& (dato_rx[i]!='&')) 
1030:  CLRF   03
1032:  MOVF   21,W
1034:  ADDLW  FF
1036:  MOVWF  FE9
1038:  MOVLW  00
103A:  ADDWFC 03,W
103C:  MOVWF  FEA
103E:  MOVF   FEF,W
1040:  SUBLW  2B
1042:  BZ    1092
1044:  CLRF   03
1046:  MOVF   21,W
1048:  ADDLW  FF
104A:  MOVWF  FE9
104C:  MOVLW  00
104E:  ADDWFC 03,W
1050:  MOVWF  FEA
1052:  MOVF   FEF,W
1054:  SUBLW  26
1056:  BZ    1092
....................       { 
....................        dato_aux[j]=dato_rx[i]; 
1058:  CLRF   03
105A:  MOVF   xD8,W
105C:  ADDLW  27
105E:  MOVWF  01
1060:  MOVLW  01
1062:  ADDWFC 03,F
1064:  MOVLB  2
1066:  MOVFF  03,252
106A:  CLRF   03
106C:  MOVF   21,W
106E:  ADDLW  FF
1070:  MOVWF  FE9
1072:  MOVLW  00
1074:  ADDWFC 03,W
1076:  MOVWF  FEA
1078:  MOVFF  FEF,253
107C:  MOVFF  252,FEA
1080:  MOVFF  01,FE9
1084:  MOVFF  253,FEF
....................        j=j+1;dat_comp=0; 
1088:  MOVLW  01
108A:  MOVLB  0
108C:  ADDWF  xD8,F
108E:  CLRF   xDD
....................       }else { 
1090:  BRA    1376
....................                for(s=0;s<=3;s++) dato_aux2[s]='0'; 
1092:  CLRF   xDA
1094:  MOVF   xDA,W
1096:  SUBLW  03
1098:  BNC   10B0
109A:  CLRF   03
109C:  MOVF   xDA,W
109E:  ADDLW  2C
10A0:  MOVWF  FE9
10A2:  MOVLW  01
10A4:  ADDWFC 03,W
10A6:  MOVWF  FEA
10A8:  MOVLW  30
10AA:  MOVWF  FEF
10AC:  INCF   xDA,F
10AE:  BRA    1094
....................                for(s=0;s<j;s++)  dato_aux2[(4-j)+s]=dato_aux[s]; 
10B0:  CLRF   xDA
10B2:  MOVF   xD8,W
10B4:  SUBWF  xDA,W
10B6:  BC    10F8
10B8:  MOVLW  04
10BA:  BSF    FD8.0
10BC:  SUBFWB xD8,W
10BE:  ADDWF  xDA,W
10C0:  CLRF   03
10C2:  ADDLW  2C
10C4:  MOVWF  01
10C6:  MOVLW  01
10C8:  ADDWFC 03,F
10CA:  MOVLB  2
10CC:  MOVFF  03,252
10D0:  CLRF   03
10D2:  MOVLB  0
10D4:  MOVF   xDA,W
10D6:  ADDLW  27
10D8:  MOVWF  FE9
10DA:  MOVLW  01
10DC:  ADDWFC 03,W
10DE:  MOVWF  FEA
10E0:  MOVFF  FEF,253
10E4:  MOVLB  2
10E6:  MOVFF  252,FEA
10EA:  MOVFF  01,FE9
10EE:  MOVFF  253,FEF
10F2:  MOVLB  0
10F4:  INCF   xDA,F
10F6:  BRA    10B2
....................                j=0; 
10F8:  CLRF   xD8
....................                if ((numero==0)&&(dat_comp!=1)) 
10FA:  MOVF   xD9,F
10FC:  BNZ   111C
10FE:  DECFSZ xDD,W
1100:  BRA    1104
1102:  BRA    111C
....................                { 
....................                 comando_rx=(atoi32(dato_aux2)); 
1104:  MOVLW  01
1106:  MOVLB  2
1108:  MOVWF  x54
110A:  MOVLW  2C
110C:  MOVWF  x53
110E:  MOVLB  0
1110:  RCALL  0D5C
1112:  MOVFF  00,184
....................                 numero=1; dat_comp=1; 
1116:  MOVLW  01
1118:  MOVWF  xD9
111A:  MOVWF  xDD
....................                } 
....................                if ((numero==1)&&(dat_comp!=1)) 
111C:  DECFSZ xD9,W
111E:  BRA    11C4
1120:  DECFSZ xDD,W
1122:  BRA    1126
1124:  BRA    11C4
....................                { 
....................                 if (comando_rx==1) valor_humedad_uno[tx_placa]=(atoi32(dato_aux2)); 
1126:  MOVLB  1
1128:  DECFSZ x84,W
112A:  BRA    1166
112C:  BCF    FD8.0
112E:  MOVLB  0
1130:  RLCF   xDF,W
1132:  CLRF   03
1134:  ADDLW  80
1136:  MOVWF  01
1138:  MOVLW  00
113A:  ADDWFC 03,F
113C:  MOVFF  01,251
1140:  MOVLB  2
1142:  MOVFF  03,252
1146:  MOVLW  01
1148:  MOVWF  x54
114A:  MOVLW  2C
114C:  MOVWF  x53
114E:  MOVLB  0
1150:  RCALL  0D5C
1152:  MOVFF  252,FEA
1156:  MOVFF  251,FE9
115A:  MOVFF  01,FEC
115E:  MOVF   FED,F
1160:  MOVFF  00,FEF
1164:  MOVLB  1
....................                 if ((comando_rx==2)&&(tx_placa==1))  
1166:  MOVF   x84,W
1168:  SUBLW  02
116A:  BNZ   1190
116C:  MOVLB  0
116E:  DECFSZ xDF,W
1170:  BRA    1174
1172:  BRA    1178
1174:  MOVLB  1
1176:  BRA    1190
....................                 {  
....................                  estado_valvula_1_placa_1_anterior=estado_valvula_1_placa_1; 
1178:  MOVFF  185,189
....................                  estado_valvula_1_placa_1=(atoi32(dato_aux2)); 
117C:  MOVLW  01
117E:  MOVLB  2
1180:  MOVWF  x54
1182:  MOVLW  2C
1184:  MOVWF  x53
1186:  MOVLB  0
1188:  RCALL  0D5C
118A:  MOVFF  00,185
118E:  MOVLB  1
....................                 } 
....................                 if ((comando_rx==2)&&(tx_placa==2)) 
1190:  MOVF   x84,W
1192:  SUBLW  02
1194:  BNZ   11BA
1196:  MOVLB  0
1198:  MOVF   xDF,W
119A:  SUBLW  02
119C:  BTFSC  FD8.2
119E:  BRA    11A4
11A0:  MOVLB  1
11A2:  BRA    11BA
....................                 {  
....................                  estado_valvula_1_placa_2_anterior=estado_valvula_1_placa_2; 
11A4:  MOVFF  187,18B
....................                  estado_valvula_1_placa_2=(atoi32(dato_aux2)); 
11A8:  MOVLW  01
11AA:  MOVLB  2
11AC:  MOVWF  x54
11AE:  MOVLW  2C
11B0:  MOVWF  x53
11B2:  MOVLB  0
11B4:  RCALL  0D5C
11B6:  MOVFF  00,187
....................                 } 
....................                 numero=2; dat_comp=1; 
11BA:  MOVLW  02
11BC:  MOVLB  0
11BE:  MOVWF  xD9
11C0:  MOVLW  01
11C2:  MOVWF  xDD
....................                } 
....................                if ((numero==2)&&(dat_comp!=1))  
11C4:  MOVF   xD9,W
11C6:  SUBLW  02
11C8:  BNZ   126E
11CA:  DECFSZ xDD,W
11CC:  BRA    11D0
11CE:  BRA    126E
....................                {  
....................                 if (comando_rx==1)valor_humedad_dos[tx_placa]=(atoi32(dato_aux2)); 
11D0:  MOVLB  1
11D2:  DECFSZ x84,W
11D4:  BRA    1210
11D6:  BCF    FD8.0
11D8:  MOVLB  0
11DA:  RLCF   xDF,W
11DC:  CLRF   03
11DE:  ADDLW  86
11E0:  MOVWF  01
11E2:  MOVLW  00
11E4:  ADDWFC 03,F
11E6:  MOVFF  01,251
11EA:  MOVLB  2
11EC:  MOVFF  03,252
11F0:  MOVLW  01
11F2:  MOVWF  x54
11F4:  MOVLW  2C
11F6:  MOVWF  x53
11F8:  MOVLB  0
11FA:  RCALL  0D5C
11FC:  MOVFF  252,FEA
1200:  MOVFF  251,FE9
1204:  MOVFF  01,FEC
1208:  MOVF   FED,F
120A:  MOVFF  00,FEF
120E:  MOVLB  1
....................                 if ((comando_rx==2)&&(tx_placa==1))  
1210:  MOVF   x84,W
1212:  SUBLW  02
1214:  BNZ   123A
1216:  MOVLB  0
1218:  DECFSZ xDF,W
121A:  BRA    121E
121C:  BRA    1222
121E:  MOVLB  1
1220:  BRA    123A
....................                  { 
....................                   estado_valvula_2_placa_1_anterior=estado_valvula_2_placa_1; 
1222:  MOVFF  186,18A
....................                   estado_valvula_2_placa_1=(atoi32(dato_aux2)); 
1226:  MOVLW  01
1228:  MOVLB  2
122A:  MOVWF  x54
122C:  MOVLW  2C
122E:  MOVWF  x53
1230:  MOVLB  0
1232:  RCALL  0D5C
1234:  MOVFF  00,186
1238:  MOVLB  1
....................                  } 
....................                  if ((comando_rx==2)&&(tx_placa==2)) 
123A:  MOVF   x84,W
123C:  SUBLW  02
123E:  BNZ   1264
1240:  MOVLB  0
1242:  MOVF   xDF,W
1244:  SUBLW  02
1246:  BTFSC  FD8.2
1248:  BRA    124E
124A:  MOVLB  1
124C:  BRA    1264
....................                  { 
....................                   estado_valvula_2_placa_2_anterior=estado_valvula_2_placa_2; 
124E:  MOVFF  188,18C
....................                   estado_valvula_2_placa_2=(atoi32(dato_aux2)); 
1252:  MOVLW  01
1254:  MOVLB  2
1256:  MOVWF  x54
1258:  MOVLW  2C
125A:  MOVWF  x53
125C:  MOVLB  0
125E:  RCALL  0D5C
1260:  MOVFF  00,188
....................                  } 
....................                  numero=3; dat_comp=1; 
1264:  MOVLW  03
1266:  MOVLB  0
1268:  MOVWF  xD9
126A:  MOVLW  01
126C:  MOVWF  xDD
....................                } 
....................                if ((numero==3)&&(dat_comp!=1)) 
126E:  MOVF   xD9,W
1270:  SUBLW  03
1272:  BNZ   1318
1274:  DECFSZ xDD,W
1276:  BRA    127A
1278:  BRA    1318
....................                {  
....................                 if (comando_rx==1)valor_humedad_tres[tx_placa]=(atoi32(dato_aux2)); 
127A:  MOVLB  1
127C:  DECFSZ x84,W
127E:  BRA    12BA
1280:  BCF    FD8.0
1282:  MOVLB  0
1284:  RLCF   xDF,W
1286:  CLRF   03
1288:  ADDLW  8C
128A:  MOVWF  01
128C:  MOVLW  00
128E:  ADDWFC 03,F
1290:  MOVFF  01,251
1294:  MOVLB  2
1296:  MOVFF  03,252
129A:  MOVLW  01
129C:  MOVWF  x54
129E:  MOVLW  2C
12A0:  MOVWF  x53
12A2:  MOVLB  0
12A4:  RCALL  0D5C
12A6:  MOVFF  252,FEA
12AA:  MOVFF  251,FE9
12AE:  MOVFF  01,FEC
12B2:  MOVF   FED,F
12B4:  MOVFF  00,FEF
12B8:  MOVLB  1
....................                 if ((comando_rx==2)&&(tx_placa==1))  
12BA:  MOVF   x84,W
12BC:  SUBLW  02
12BE:  BNZ   12E4
12C0:  MOVLB  0
12C2:  DECFSZ xDF,W
12C4:  BRA    12C8
12C6:  BRA    12CC
12C8:  MOVLB  1
12CA:  BRA    12E4
....................                 { 
....................                  tipo_riego_anterior_placa_1=tipo_riego_placa_1; 
12CC:  MOVFF  18D,18E
....................                  tipo_riego_placa_1=(atoi32(dato_aux2)); 
12D0:  MOVLW  01
12D2:  MOVLB  2
12D4:  MOVWF  x54
12D6:  MOVLW  2C
12D8:  MOVWF  x53
12DA:  MOVLB  0
12DC:  RCALL  0D5C
12DE:  MOVFF  00,18D
12E2:  MOVLB  1
....................                 } 
....................                 if ((comando_rx==2)&&(tx_placa==2)) 
12E4:  MOVF   x84,W
12E6:  SUBLW  02
12E8:  BNZ   130E
12EA:  MOVLB  0
12EC:  MOVF   xDF,W
12EE:  SUBLW  02
12F0:  BTFSC  FD8.2
12F2:  BRA    12F8
12F4:  MOVLB  1
12F6:  BRA    130E
....................                 { 
....................                  tipo_riego_anterior_placa_2=tipo_riego_placa_2; 
12F8:  MOVFF  18F,190
....................                  tipo_riego_placa_2=(atoi32(dato_aux2)); 
12FC:  MOVLW  01
12FE:  MOVLB  2
1300:  MOVWF  x54
1302:  MOVLW  2C
1304:  MOVWF  x53
1306:  MOVLB  0
1308:  RCALL  0D5C
130A:  MOVFF  00,18F
....................                 } 
....................                 numero=4; dat_comp=1; 
130E:  MOVLW  04
1310:  MOVLB  0
1312:  MOVWF  xD9
1314:  MOVLW  01
1316:  MOVWF  xDD
....................                } 
....................                if ((numero==4)&&(dat_comp!=1)) 
1318:  MOVF   xD9,W
131A:  SUBLW  04
131C:  BNZ   1376
131E:  DECFSZ xDD,W
1320:  BRA    1324
1322:  BRA    1376
....................                { 
....................                 if (comando_rx==1)valor_humedad_cuatro[tx_placa]=(atoi32(dato_aux2)); 
1324:  MOVLB  1
1326:  DECFSZ x84,W
1328:  BRA    1364
132A:  BCF    FD8.0
132C:  MOVLB  0
132E:  RLCF   xDF,W
1330:  CLRF   03
1332:  ADDLW  92
1334:  MOVWF  01
1336:  MOVLW  00
1338:  ADDWFC 03,F
133A:  MOVFF  01,251
133E:  MOVLB  2
1340:  MOVFF  03,252
1344:  MOVLW  01
1346:  MOVWF  x54
1348:  MOVLW  2C
134A:  MOVWF  x53
134C:  MOVLB  0
134E:  RCALL  0D5C
1350:  MOVFF  252,FEA
1354:  MOVFF  251,FE9
1358:  MOVFF  01,FEC
135C:  MOVF   FED,F
135E:  MOVFF  00,FEF
1362:  MOVLB  1
....................                 if (comando_rx==2); 
1364:  MOVF   x84,W
1366:  SUBLW  02
1368:  BZ    136A
....................                 numero=0; 
136A:  MOVLB  0
136C:  CLRF   xD9
....................                 dat_comp=1; 
136E:  MOVLW  01
1370:  MOVWF  xDD
....................                 fin_pal=i; 
1372:  MOVFF  21,DE
....................                } 
....................         } 
....................     }     
1376:  INCF   21,F
1378:  BRA    1008
.................... } 
137A:  GOTO   1738 (RETURN)
....................  
.................... #task(rate = 35ms)//no cambiar por eeprom pic 
.................... void maquina_de_estado_de_comunicacion(); 
.................... #task(rate = 50ms)//no cambiar por eeprom pic 
.................... void reloj_tiempo_real(); 
.................... #task(rate = 5ms) 
.................... void maquina_de_estado_pantallas(); 
.................... #task(rate = 50ms) 
.................... void manejo_bombas(); 
.................... #task(rate = 5ms) 
.................... void maquina_de_estado_teclado_analogico(); 
.................... #task(rate = 55ms) 
.................... void maquina_de_estado_reportes(); 
.................... #task(rate = 255ms) 
.................... void maquina_de_estado_bluetooth(); 
.................... void main() 
.................... {  
*
7BFE:  CLRF   FF8
7C00:  BCF    FD0.7
7C02:  BSF    07.7
7C04:  CLRF   FEA
7C06:  CLRF   FE9
7C08:  BCF    F96.2
7C0A:  BCF    F8D.2
7C0C:  BSF    FB8.3
7C0E:  MOVLW  08
7C10:  MOVWF  FAF
7C12:  MOVLW  02
7C14:  MOVWF  FB0
7C16:  MOVLW  A6
7C18:  MOVWF  FAC
7C1A:  MOVLW  90
7C1C:  MOVWF  FAB
7C1E:  BCF    F96.0
7C20:  BSF    F8D.0
7C22:  CLRF   1C
7C24:  CLRF   1B
7C26:  MOVLW  12
7C28:  MOVWF  22
7C2A:  CLRF   23
7C2C:  CLRF   x72
7C2E:  CLRF   x71
7C30:  CLRF   xD8
7C32:  CLRF   xD9
7C34:  CLRF   xDB
7C36:  CLRF   xDC
7C38:  MOVLW  01
7C3A:  MOVWF  xDF
7C3C:  MOVWF  xE0
7C3E:  MOVLB  1
7C40:  CLRF   x47
7C42:  CLRF   x48
7C44:  CLRF   x49
7C46:  CLRF   x4A
7C48:  CLRF   x4C
7C4A:  MOVWF  x4B
7C4C:  CLRF   x4E
7C4E:  CLRF   x4D
7C50:  CLRF   x4F
7C52:  CLRF   x50
7C54:  CLRF   x51
7C56:  CLRF   x52
7C58:  CLRF   x53
7C5A:  MOVLW  02
7C5C:  MOVWF  x54
7C5E:  CLRF   x55
7C60:  CLRF   x56
7C62:  CLRF   x57
7C64:  CLRF   x58
7C66:  CLRF   x59
7C68:  MOVWF  x5B
7C6A:  CLRF   x5C
7C6C:  CLRF   x5D
7C6E:  MOVLW  01
7C70:  MOVWF  x5E
7C72:  MOVWF  x84
7C74:  CLRF   x85
7C76:  CLRF   x86
7C78:  CLRF   x87
7C7A:  CLRF   x88
7C7C:  CLRF   x89
7C7E:  CLRF   x8A
7C80:  CLRF   x8B
7C82:  CLRF   x8C
7C84:  CLRF   x8D
7C86:  CLRF   x8E
7C88:  CLRF   x8F
7C8A:  CLRF   x90
7C8C:  CLRF   x96
7C8E:  CLRF   x97
7C90:  CLRF   x98
7C92:  CLRF   x99
7C94:  CLRF   x9A
7C96:  CLRF   x9B
7C98:  CLRF   x9C
7C9A:  CLRF   xA2
7C9C:  CLRF   xA3
7C9E:  CLRF   xA4
7CA0:  CLRF   xA5
7CA2:  MOVLW  C8
7CA4:  MOVWF  xA6
7CA6:  CLRF   xA7
7CA8:  CLRF   xA8
7CAA:  MOVF   FC1,W
7CAC:  ANDLW  C0
7CAE:  IORLW  0F
7CB0:  MOVWF  FC1
7CB2:  MOVLW  07
7CB4:  MOVWF  FB4
7CB6:  MOVLW  4C
7CB8:  MOVWF  24
7CBA:  MOVLW  75
7CBC:  MOVWF  25
7CBE:  MOVLW  6E
7CC0:  MOVWF  26
7CC2:  MOVLW  65
7CC4:  MOVWF  27
7CC6:  MOVLW  73
7CC8:  MOVWF  28
7CCA:  CLRF   29
7CCC:  CLRF   2A
7CCE:  CLRF   2B
7CD0:  CLRF   2C
7CD2:  CLRF   2D
7CD4:  CLRF   2E
7CD6:  MOVLW  4D
7CD8:  MOVWF  2F
7CDA:  MOVLW  61
7CDC:  MOVWF  30
7CDE:  MOVLW  72
7CE0:  MOVWF  31
7CE2:  MOVLW  74
7CE4:  MOVWF  32
7CE6:  MOVLW  65
7CE8:  MOVWF  33
7CEA:  MOVLW  73
7CEC:  MOVWF  34
7CEE:  CLRF   35
7CF0:  CLRF   36
7CF2:  CLRF   37
7CF4:  CLRF   38
7CF6:  CLRF   39
7CF8:  MOVLW  4D
7CFA:  MOVWF  3A
7CFC:  MOVLW  69
7CFE:  MOVWF  3B
7D00:  MOVLW  E9
7D02:  MOVWF  3C
7D04:  MOVLW  72
7D06:  MOVWF  3D
7D08:  MOVLW  63
7D0A:  MOVWF  3E
7D0C:  MOVLW  6F
7D0E:  MOVWF  3F
7D10:  MOVLW  6C
7D12:  MOVWF  40
7D14:  MOVLW  65
7D16:  MOVWF  41
7D18:  MOVLW  73
7D1A:  MOVWF  42
7D1C:  CLRF   43
7D1E:  CLRF   44
7D20:  MOVLW  4A
7D22:  MOVWF  45
7D24:  MOVLW  75
7D26:  MOVWF  46
7D28:  MOVLW  65
7D2A:  MOVWF  47
7D2C:  MOVLW  76
7D2E:  MOVWF  48
7D30:  MOVLW  65
7D32:  MOVWF  49
7D34:  MOVLW  73
7D36:  MOVWF  4A
7D38:  CLRF   4B
7D3A:  CLRF   4C
7D3C:  CLRF   4D
7D3E:  CLRF   4E
7D40:  CLRF   4F
7D42:  MOVLW  56
7D44:  MOVWF  50
7D46:  MOVLW  69
7D48:  MOVWF  51
7D4A:  MOVLW  65
7D4C:  MOVWF  52
7D4E:  MOVLW  72
7D50:  MOVWF  53
7D52:  MOVLW  6E
7D54:  MOVWF  54
7D56:  MOVLW  65
7D58:  MOVWF  55
7D5A:  MOVLW  73
7D5C:  MOVWF  56
7D5E:  CLRF   57
7D60:  CLRF   58
7D62:  CLRF   59
7D64:  CLRF   5A
7D66:  MOVLW  53
7D68:  MOVWF  5B
7D6A:  MOVLW  E1
7D6C:  MOVWF  5C
7D6E:  MOVLW  62
7D70:  MOVWF  5D
7D72:  MOVLW  61
7D74:  MOVWF  5E
7D76:  MOVLW  64
7D78:  MOVWF  5F
7D7A:  MOVLW  6F
7D7C:  MOVLB  0
7D7E:  MOVWF  x60
7D80:  CLRF   x61
7D82:  CLRF   x62
7D84:  CLRF   x63
7D86:  CLRF   x64
7D88:  CLRF   x65
7D8A:  MOVLW  44
7D8C:  MOVWF  x66
7D8E:  MOVLW  6F
7D90:  MOVWF  x67
7D92:  MOVLW  6D
7D94:  MOVWF  x68
7D96:  MOVLW  69
7D98:  MOVWF  x69
7D9A:  MOVLW  6E
7D9C:  MOVWF  x6A
7D9E:  MOVLW  67
7DA0:  MOVWF  x6B
7DA2:  MOVLW  6F
7DA4:  MOVWF  x6C
7DA6:  CLRF   x6D
7DA8:  CLRF   x6E
7DAA:  CLRF   x73
7DAC:  CLRF   x74
....................    delay_ms(150); 
7DAE:  MOVLW  96
7DB0:  MOVLB  2
7DB2:  MOVWF  x5F
7DB4:  MOVLB  0
7DB6:  CALL   0D34
....................    UTRDIS = 1; //<----------------------ESTO SI O SI 
7DBA:  BSF    F6F.3
....................    desactivar_rele(PIN_A5); 
7DBC:  MOVLW  05
7DBE:  MOVLB  2
7DC0:  MOVWF  x51
7DC2:  MOVLB  0
7DC4:  CALL   02BE
....................    desactivar_rele(PIN_A2); 
7DC8:  MOVLW  02
7DCA:  MOVLB  2
7DCC:  MOVWF  x51
7DCE:  MOVLB  0
7DD0:  CALL   02BE
....................    setup_timer_3(T3_DISABLED | T3_DIV_BY_1); 
7DD4:  CLRF   FB1
....................    lcd_init(); 
7DD6:  BRA    79FA
....................    setup_adc_ports(NO_ANALOGS); 
7DD8:  MOVF   FC1,W
7DDA:  ANDLW  C0
7DDC:  IORLW  0F
7DDE:  MOVWF  FC1
....................    setup_adc(ADC_OFF); 
7DE0:  BCF    FC2.0
....................    setup_psp(PSP_DISABLED); 
7DE2:  BCF    F96.4
....................    setup_spi(FALSE); 
7DE4:  CLRF   FC6
....................    SETUP_SPI(SPI_DISABLED); 
7DE6:  CLRF   FC6
....................    SETUP_SPI(SPI_SS_DISABLED); 
7DE8:  BCF    FC6.5
7DEA:  BCF    F94.7
7DEC:  BSF    F93.0
7DEE:  BCF    F93.1
7DF0:  MOVLW  01
7DF2:  MOVWF  FC6
7DF4:  MOVLW  00
7DF6:  MOVWF  FC7
....................    enable_interrupts(global); 
7DF8:  MOVLW  C0
7DFA:  IORWF  FF2,F
....................    enable_interrupts(int_rda); 
7DFC:  BSF    F9D.5
....................    interruptrb2_init(); 
7DFE:  BRA    7A7A
....................    setup_counters(RTCC_INTERNAL,RTCC_DIV_32); 
7E00:  BCF    FD1.0
7E02:  MOVLW  84
7E04:  MOVWF  FD5
....................    ds1307_init(DS1307_OUT_ON_DISABLED_HIHG | DS1307_OUT_ENABLED | DS1307_OUT_32_KHZ); 
7E06:  MOVLW  93
7E08:  MOVLB  1
7E0A:  MOVWF  xDA
7E0C:  MOVLB  0
7E0E:  BRA    7A82
....................    delay_us(10); 
7E10:  MOVLW  10
7E12:  MOVWF  00
7E14:  DECFSZ 00,F
7E16:  BRA    7E14
7E18:  NOP   
....................    rtos_run(); 
7E1A:  MOVLB  1
7E1C:  CLRF   xA9
7E1E:  CLRF   xAB
7E20:  MOVLW  07
7E22:  MOVWF  xAA
7E24:  CLRF   xAD
7E26:  CLRF   xAC
7E28:  MOVLW  CC
7E2A:  MOVWF  xAE
7E2C:  MOVLW  13
7E2E:  MOVWF  xAF
7E30:  CLRF   xB0
7E32:  CLRF   xB2
7E34:  MOVLW  0A
7E36:  MOVWF  xB1
7E38:  CLRF   xB4
7E3A:  CLRF   xB3
7E3C:  MOVLW  44
7E3E:  MOVWF  xB5
7E40:  MOVLW  5A
7E42:  MOVWF  xB6
7E44:  CLRF   xB7
7E46:  CLRF   xB9
7E48:  MOVLW  01
7E4A:  MOVWF  xB8
7E4C:  CLRF   xBB
7E4E:  CLRF   xBA
7E50:  MOVLW  36
7E52:  MOVWF  xBC
7E54:  MOVLW  20
7E56:  MOVWF  xBD
7E58:  CLRF   xBE
7E5A:  CLRF   xC0
7E5C:  MOVLW  0A
7E5E:  MOVWF  xBF
7E60:  CLRF   xC2
7E62:  CLRF   xC1
7E64:  MOVLW  E8
7E66:  MOVWF  xC3
7E68:  MOVLW  02
7E6A:  MOVWF  xC4
7E6C:  CLRF   xC5
7E6E:  CLRF   xC7
7E70:  MOVLW  01
7E72:  MOVWF  xC6
7E74:  CLRF   xC9
7E76:  CLRF   xC8
7E78:  MOVLW  94
7E7A:  MOVWF  xCA
7E7C:  MOVLW  59
7E7E:  MOVWF  xCB
7E80:  CLRF   xCC
7E82:  CLRF   xCE
7E84:  MOVLW  0B
7E86:  MOVWF  xCD
7E88:  CLRF   xD0
7E8A:  CLRF   xCF
7E8C:  MOVLW  F6
7E8E:  MOVWF  xD1
7E90:  MOVLW  5D
7E92:  MOVWF  xD2
7E94:  CLRF   xD3
7E96:  CLRF   xD5
7E98:  MOVLW  33
7E9A:  MOVWF  xD4
7E9C:  CLRF   xD7
7E9E:  CLRF   xD6
7EA0:  MOVLW  FE
7EA2:  MOVWF  xD8
7EA4:  MOVLW  77
7EA6:  MOVWF  xD9
7EA8:  CLRF   19
7EAA:  MOVLW  88
7EAC:  MOVWF  FD5
7EAE:  MOVLW  CF
7EB0:  MOVWF  FD7
7EB2:  MOVLW  2C
7EB4:  MOVWF  FD6
7EB6:  BCF    FF2.2
7EB8:  BCF    FD8.0
7EBA:  RLCF   19,W
7EBC:  MOVWF  00
7EBE:  MOVLB  0
7EC0:  CALL   0156
7EC4:  MOVWF  02
7EC6:  MOVLW  01
7EC8:  ADDWF  00,W
7ECA:  CALL   0156
7ECE:  MOVWF  03
7ED0:  MOVFF  03,FEA
7ED4:  MOVFF  02,FE9
7ED8:  MOVFF  FEF,02
7EDC:  INCF   FE9,F
7EDE:  MOVFF  FEF,00
7EE2:  MOVFF  FEC,01
7EE6:  INCF   FEC,F
7EE8:  MOVFF  FEF,03
7EEC:  BNZ   7EF2
7EEE:  INCF   FEC,F
7EF0:  MOVF   FED,F
7EF2:  MOVF   FEC,W
7EF4:  SUBWF  01,W
7EF6:  BNZ   7F18
7EF8:  MOVF   00,W
7EFA:  SUBWF  03,W
7EFC:  BNZ   7F18
7EFE:  MOVF   FED,F
7F00:  CLRF   FEE
7F02:  CLRF   FEF
7F04:  BTFSC  02.7
7F06:  BRA    7F18
7F08:  MOVF   FEC,F
7F0A:  MOVFF  FEC,FFA
7F0E:  MOVF   FED,F
7F10:  MOVFF  FEF,FE8
7F14:  MOVWF  FF9
7F16:  MOVLB  0
7F18:  INCF   19,F
7F1A:  MOVLW  07
7F1C:  SUBWF  19,W
7F1E:  BTFSC  FD8.2
7F20:  BRA    7F26
7F22:  MOVLB  1
7F24:  BRA    7EB8
7F26:  CLRF   19
7F28:  MOVF   FD6,W
7F2A:  MOVFF  FD7,03
7F2E:  BTFSS  FF2.2
7F30:  BRA    7F36
7F32:  MOVLB  1
7F34:  BRA    7EAE
7F36:  BRA    7F28
7F38:  SETF   19
.................... } 
....................  
.................... void manejo_bombas() 
.................... {  
7F3A:  SLEEP 
....................   x=estado_valvula_1_placa_1+estado_valvula_2_placa_1+estado_valvula_1_placa_2+estado_valvula_2_placa_2; 
*
02E8:  MOVLB  1
02EA:  MOVF   x86,W
02EC:  ADDWF  x85,W
02EE:  ADDWF  x87,W
02F0:  ADDWF  x88,W
02F2:  MOVWF  x83
....................   if ((x<=2)&&(x!=0))  
02F4:  MOVF   x83,W
02F6:  SUBLW  02
02F8:  BNC   0314
02FA:  MOVF   x83,F
02FC:  BZ    0314
....................   { 
....................    activar_rele(PIN_A2); 
02FE:  MOVLW  02
0300:  MOVLB  2
0302:  MOVWF  x51
0304:  MOVLB  0
0306:  RCALL  0292
....................    desactivar_rele(PIN_A5); 
0308:  MOVLW  05
030A:  MOVLB  2
030C:  MOVWF  x51
030E:  MOVLB  0
0310:  RCALL  02BE
0312:  MOVLB  1
....................   } 
....................   if (x>2) 
0314:  MOVF   x83,W
0316:  SUBLW  02
0318:  BC    0330
....................   { 
....................    activar_rele(PIN_A2); 
031A:  MOVLW  02
031C:  MOVLB  2
031E:  MOVWF  x51
0320:  MOVLB  0
0322:  RCALL  0292
....................    activar_rele(PIN_A5);  
0324:  MOVLW  05
0326:  MOVLB  2
0328:  MOVWF  x51
032A:  MOVLB  0
032C:  RCALL  0292
032E:  MOVLB  1
....................   } 
....................   if (x==0)  
0330:  MOVF   x83,F
0332:  BNZ   034A
....................   { 
....................    desactivar_rele(PIN_A5); 
0334:  MOVLW  05
0336:  MOVLB  2
0338:  MOVWF  x51
033A:  MOVLB  0
033C:  RCALL  02BE
....................    desactivar_rele(PIN_A2);  
033E:  MOVLW  02
0340:  MOVLB  2
0342:  MOVWF  x51
0344:  MOVLB  0
0346:  RCALL  02BE
0348:  MOVLB  1
....................   } 
.................... } 
034A:  MOVLW  E8
034C:  MOVWF  xC3
034E:  MOVLW  02
0350:  MOVWF  xC4
0352:  GOTO   7F16
0356:  MOVLB  0
0358:  RETURN 0
....................  
.................... void maquina_de_estado_de_comunicacion() 
.................... {   
....................  switch (estado_siguiente){ 
*
13CC:  MOVLB  1
13CE:  MOVF   x50,W
13D0:  XORLW  00
13D2:  MOVLB  0
13D4:  BZ    13E4
13D6:  XORLW  01
13D8:  BTFSC  FD8.2
13DA:  BRA    160A
13DC:  XORLW  03
13DE:  BTFSC  FD8.2
13E0:  BRA    1670
13E2:  BRA    17CC
....................     case STATE_INI: 
....................     {   
....................       minima[1]=read_EEPROM (minima_placa_1_e); 
13E4:  MOVFF  FF2,251
13E8:  BCF    FF2.7
13EA:  CLRF   FA9
13EC:  BCF    FA6.6
13EE:  BCF    FA6.7
13F0:  BSF    FA6.0
13F2:  MOVF   FA8,W
13F4:  MOVLB  2
13F6:  BTFSC  x51.7
13F8:  BSF    FF2.7
13FA:  MOVLB  0
13FC:  CLRF   x9B
13FE:  MOVWF  x9A
....................       maxima[1]=read_EEPROM (maxima_placa_1_e); 
1400:  MOVFF  FF2,251
1404:  BCF    FF2.7
1406:  MOVLW  01
1408:  MOVWF  FA9
140A:  BCF    FA6.6
140C:  BCF    FA6.7
140E:  BSF    FA6.0
1410:  MOVF   FA8,W
1412:  MOVLB  2
1414:  BTFSC  x51.7
1416:  BSF    FF2.7
1418:  MOVLB  0
141A:  CLRF   xA1
141C:  MOVWF  xA0
....................       minima[2]=read_EEPROM (minima_placa_2_e); 
141E:  MOVFF  FF2,251
1422:  BCF    FF2.7
1424:  MOVLW  02
1426:  MOVWF  FA9
1428:  BCF    FA6.6
142A:  BCF    FA6.7
142C:  BSF    FA6.0
142E:  MOVF   FA8,W
1430:  MOVLB  2
1432:  BTFSC  x51.7
1434:  BSF    FF2.7
1436:  MOVLB  0
1438:  CLRF   x9D
143A:  MOVWF  x9C
....................       maxima[2]=read_EEPROM (maxima_placa_2_e); 
143C:  MOVFF  FF2,251
1440:  BCF    FF2.7
1442:  MOVLW  03
1444:  MOVWF  FA9
1446:  BCF    FA6.6
1448:  BCF    FA6.7
144A:  BSF    FA6.0
144C:  MOVF   FA8,W
144E:  MOVLB  2
1450:  BTFSC  x51.7
1452:  BSF    FF2.7
1454:  MOVLB  0
1456:  CLRF   xA3
1458:  MOVWF  xA2
....................       for(i=0;i<=2;i++) 
145A:  CLRF   21
145C:  MOVF   21,W
145E:  SUBLW  02
1460:  BNC   1526
....................       { 
....................        salida_1[i]=0; 
1462:  CLRF   03
1464:  MOVF   21,W
1466:  ADDLW  5F
1468:  MOVWF  FE9
146A:  MOVLW  01
146C:  ADDWFC 03,W
146E:  MOVWF  FEA
1470:  CLRF   FEF
....................        salida_2[i]=0; 
1472:  CLRF   03
1474:  MOVF   21,W
1476:  ADDLW  62
1478:  MOVWF  FE9
147A:  MOVLW  01
147C:  ADDWFC 03,W
147E:  MOVWF  FEA
1480:  CLRF   FEF
....................        salida_3[i]=0; 
1482:  CLRF   03
1484:  MOVF   21,W
1486:  ADDLW  65
1488:  MOVWF  FE9
148A:  MOVLW  01
148C:  ADDWFC 03,W
148E:  MOVWF  FEA
1490:  CLRF   FEF
....................        salida_4[i]=0; 
1492:  CLRF   03
1494:  MOVF   21,W
1496:  ADDLW  68
1498:  MOVWF  FE9
149A:  MOVLW  01
149C:  ADDWFC 03,W
149E:  MOVWF  FEA
14A0:  CLRF   FEF
....................        sube_1[i]=0; 
14A2:  CLRF   03
14A4:  MOVF   21,W
14A6:  ADDLW  6B
14A8:  MOVWF  FE9
14AA:  MOVLW  01
14AC:  ADDWFC 03,W
14AE:  MOVWF  FEA
14B0:  CLRF   FEF
....................        sube_2[i]=0; 
14B2:  CLRF   03
14B4:  MOVF   21,W
14B6:  ADDLW  6E
14B8:  MOVWF  FE9
14BA:  MOVLW  01
14BC:  ADDWFC 03,W
14BE:  MOVWF  FEA
14C0:  CLRF   FEF
....................        sube_3[i]=0; 
14C2:  CLRF   03
14C4:  MOVF   21,W
14C6:  ADDLW  71
14C8:  MOVWF  FE9
14CA:  MOVLW  01
14CC:  ADDWFC 03,W
14CE:  MOVWF  FEA
14D0:  CLRF   FEF
....................        sube_4[i]=0; 
14D2:  CLRF   03
14D4:  MOVF   21,W
14D6:  ADDLW  74
14D8:  MOVWF  FE9
14DA:  MOVLW  01
14DC:  ADDWFC 03,W
14DE:  MOVWF  FEA
14E0:  CLRF   FEF
....................        baja_1[i]=0; 
14E2:  CLRF   03
14E4:  MOVF   21,W
14E6:  ADDLW  77
14E8:  MOVWF  FE9
14EA:  MOVLW  01
14EC:  ADDWFC 03,W
14EE:  MOVWF  FEA
14F0:  CLRF   FEF
....................        baja_2[i]=0; 
14F2:  CLRF   03
14F4:  MOVF   21,W
14F6:  ADDLW  7A
14F8:  MOVWF  FE9
14FA:  MOVLW  01
14FC:  ADDWFC 03,W
14FE:  MOVWF  FEA
1500:  CLRF   FEF
....................        baja_3[i]=0; 
1502:  CLRF   03
1504:  MOVF   21,W
1506:  ADDLW  7D
1508:  MOVWF  FE9
150A:  MOVLW  01
150C:  ADDWFC 03,W
150E:  MOVWF  FEA
1510:  CLRF   FEF
....................        baja_4[i]=0; 
1512:  CLRF   03
1514:  MOVF   21,W
1516:  ADDLW  80
1518:  MOVWF  FE9
151A:  MOVLW  01
151C:  ADDWFC 03,W
151E:  MOVWF  FEA
1520:  CLRF   FEF
....................       } 
1522:  INCF   21,F
1524:  BRA    145C
....................       veces_registro=0; 
1526:  MOVLB  1
1528:  CLRF   x97
....................       hora_inicio[1]     =0; 
152A:  MOVLB  0
152C:  CLRF   xBF
152E:  CLRF   xBE
....................       hora_inicio[2]     =0; 
1530:  CLRF   xC1
1532:  CLRF   xC0
....................       minutos_inicio[1]  =0; 
1534:  CLRF   xCB
1536:  CLRF   xCA
....................       minutos_inicio[2]  =0; 
1538:  CLRF   xCD
153A:  CLRF   xCC
....................       hora_fin[1]        =0; 
153C:  CLRF   xC5
153E:  CLRF   xC4
....................       hora_fin[2]        =0; 
1540:  CLRF   xC7
1542:  CLRF   xC6
....................       minutos_fin[1]     =0; 
1544:  CLRF   xD1
1546:  CLRF   xD0
....................       minutos_fin[2]     =0; 
1548:  CLRF   xD3
154A:  CLRF   xD2
....................       manual_anterior[1]=44; 
154C:  CLRF   xB9
154E:  MOVLW  2C
1550:  MOVWF  xB8
....................       manual_anterior[2]=44; 
1552:  CLRF   xBB
1554:  MOVWF  xBA
....................       manual[1]=44; 
1556:  CLRF   xB3
1558:  MOVWF  xB2
....................       manual[2]=44; 
155A:  CLRF   xB5
155C:  MOVWF  xB4
....................       valor_humedad_uno[1]=1; 
155E:  CLRF   x83
1560:  MOVLW  01
1562:  MOVWF  x82
....................       valor_humedad_uno[2]=1; 
1564:  CLRF   x85
1566:  MOVWF  x84
....................       valor_humedad_dos[1]=1; 
1568:  CLRF   x89
156A:  MOVWF  x88
....................       valor_humedad_dos[2]=1; 
156C:  CLRF   x8B
156E:  MOVWF  x8A
....................       valor_humedad_tres[1]=1; 
1570:  CLRF   x8F
1572:  MOVWF  x8E
....................       valor_humedad_tres[2]=1; 
1574:  CLRF   x91
1576:  MOVWF  x90
....................       valor_humedad_cuatro[1]=1; 
1578:  CLRF   x95
157A:  MOVWF  x94
....................       valor_humedad_cuatro[2]=1; 
157C:  CLRF   x97
157E:  MOVWF  x96
....................       comando_tx=1; 
1580:  MOVLB  1
1582:  CLRF   x4C
1584:  MOVWF  x4B
....................        
....................       tx_placa=2; 
1586:  MOVLW  02
1588:  MOVLB  0
158A:  MOVWF  xDF
....................       dato_completo=0; 
158C:  CLRF   xDC
....................       armar_trama(); 
158E:  CALL   0550
....................       envio_dato(); 
1592:  CALL   0CEA
....................       while(dato_completo==0) 
....................       { 
1596:  MOVF   xDC,F
1598:  BNZ   15C0
....................        if (espera_placa_dos!=max_espera)  espera_placa_dos=(espera_placa_dos+1); 
159A:  MOVLB  1
159C:  MOVF   xA6,W
159E:  SUBWF  xA5,W
15A0:  BZ    15A6
15A2:  MOVLW  01
15A4:  ADDWF  xA5,F
....................        if (espera_placa_dos==max_espera) dato_completo=1; 
15A6:  MOVF   xA6,W
15A8:  SUBWF  xA5,W
15AA:  BNZ   15B2
15AC:  MOVLW  01
15AE:  MOVLB  0
15B0:  MOVWF  xDC
....................        delay_ms(10); 
15B2:  MOVLW  0A
15B4:  MOVLB  2
15B6:  MOVWF  x5F
15B8:  MOVLB  0
15BA:  CALL   0D34
....................       } 
15BE:  BRA    1596
....................      
....................       comando_tx=1; 
15C0:  MOVLB  1
15C2:  CLRF   x4C
15C4:  MOVLW  01
15C6:  MOVWF  x4B
....................       tx_placa=1; 
15C8:  MOVLB  0
15CA:  MOVWF  xDF
....................       dato_completo=0; 
15CC:  CLRF   xDC
....................       armar_trama(); 
15CE:  CALL   0550
....................       envio_dato(); 
15D2:  CALL   0CEA
....................       while(dato_completo==0) 
....................       { 
15D6:  MOVF   xDC,F
15D8:  BNZ   1600
....................        if (espera_placa_uno!=max_espera)  espera_placa_uno=(espera_placa_uno+1); 
15DA:  MOVLB  1
15DC:  MOVF   xA6,W
15DE:  SUBWF  xA4,W
15E0:  BZ    15E6
15E2:  MOVLW  01
15E4:  ADDWF  xA4,F
....................        if (espera_placa_uno==max_espera) dato_completo=1; 
15E6:  MOVF   xA6,W
15E8:  SUBWF  xA4,W
15EA:  BNZ   15F2
15EC:  MOVLW  01
15EE:  MOVLB  0
15F0:  MOVWF  xDC
....................        delay_ms(10); 
15F2:  MOVLW  0A
15F4:  MOVLB  2
15F6:  MOVWF  x5F
15F8:  MOVLB  0
15FA:  CALL   0D34
....................       } 
15FE:  BRA    15D6
....................      estado_siguiente=STATE_ACTIVO; 
1600:  MOVLW  02
1602:  MOVLB  1
1604:  MOVWF  x50
....................      break; 
1606:  MOVLB  0
1608:  BRA    17CC
....................      } 
....................      case STATE_SEND: 
....................      { 
....................       if(( tx_placa==1)) tx_placa=2; else tx_placa=1; 
160A:  DECFSZ xDF,W
160C:  BRA    1614
160E:  MOVLW  02
1610:  MOVWF  xDF
1612:  BRA    1618
1614:  MOVLW  01
1616:  MOVWF  xDF
....................       if ((comando_tx==3)&& (comando_rx==1)) comando_tx=8; 
1618:  MOVLB  1
161A:  MOVF   x4B,W
161C:  SUBLW  03
161E:  BNZ   162E
1620:  MOVF   x4C,F
1622:  BNZ   162E
1624:  DECFSZ x84,W
1626:  BRA    162E
1628:  CLRF   x4C
162A:  MOVLW  08
162C:  MOVWF  x4B
....................       armar_trama(); 
162E:  MOVLB  0
1630:  CALL   0550
....................       envio_dato(); 
1634:  CALL   0CEA
....................       if ((comando_tx_anterior==comando_tx)&&(tx_placa_anterior!=tx_placa))comando_tx=8; 
1638:  MOVLB  1
163A:  MOVF   x4B,W
163C:  SUBWF  x4D,W
163E:  BNZ   165C
1640:  MOVF   x4C,W
1642:  SUBWF  x4E,W
1644:  BNZ   165C
1646:  MOVLB  0
1648:  MOVF   xDF,W
164A:  SUBWF  xE0,W
164C:  BTFSS  FD8.2
164E:  BRA    1654
1650:  MOVLB  1
1652:  BRA    165C
1654:  MOVLB  1
1656:  CLRF   x4C
1658:  MOVLW  08
165A:  MOVWF  x4B
....................       comando_tx_anterior=comando_tx; 
165C:  MOVFF  14C,14E
1660:  MOVFF  14B,14D
....................       tx_placa_anterior=tx_placa; 
1664:  MOVFF  DF,E0
....................       estado_siguiente=STATE_ACTIVO; 
1668:  MOVLW  02
166A:  MOVWF  x50
....................      break; 
166C:  MOVLB  0
166E:  BRA    17CC
....................      } 
....................      case STATE_ACTIVO: 
....................      {  
....................      if ( ((dato_rx[0]=='0') && (dato_rx[1]=='0')&& (dato_rx[2]=='0') && (dato_rx[3]=='0')&& 
....................             (dato_rx[4]=='0') && (dato_rx[5]=='0')&&  (dato_rx[6]=='0')&&(dato_rx[7]=='1')&&( dato_completo==1))|| 
....................                      ((((dato_rx[0]=='0') && (dato_rx[1]=='0')&& (dato_rx[2]=='0') && (dato_rx[3]=='0')&& 
....................                   (dato_rx[4]=='0') && (dato_rx[5]=='0')&&  (dato_rx[6]=='1')&&(dato_rx[7]=='0')&&( dato_completo==1)) ))) 
1670:  MOVF   xFF,W
1672:  SUBLW  30
1674:  BNZ   16D4
1676:  MOVLB  1
1678:  MOVF   x00,W
167A:  SUBLW  30
167C:  BTFSC  FD8.2
167E:  BRA    1684
1680:  MOVLB  0
1682:  BRA    16D4
1684:  MOVF   x01,W
1686:  SUBLW  30
1688:  BTFSC  FD8.2
168A:  BRA    1690
168C:  MOVLB  0
168E:  BRA    16D4
1690:  MOVF   x02,W
1692:  SUBLW  30
1694:  BTFSC  FD8.2
1696:  BRA    169C
1698:  MOVLB  0
169A:  BRA    16D4
169C:  MOVF   x03,W
169E:  SUBLW  30
16A0:  BTFSC  FD8.2
16A2:  BRA    16A8
16A4:  MOVLB  0
16A6:  BRA    16D4
16A8:  MOVF   x04,W
16AA:  SUBLW  30
16AC:  BTFSC  FD8.2
16AE:  BRA    16B4
16B0:  MOVLB  0
16B2:  BRA    16D4
16B4:  MOVF   x05,W
16B6:  SUBLW  30
16B8:  BTFSC  FD8.2
16BA:  BRA    16C0
16BC:  MOVLB  0
16BE:  BRA    16D4
16C0:  MOVF   x06,W
16C2:  SUBLW  31
16C4:  BTFSC  FD8.2
16C6:  BRA    16CC
16C8:  MOVLB  0
16CA:  BRA    16D4
16CC:  MOVLB  0
16CE:  DECFSZ xDC,W
16D0:  BRA    16D4
16D2:  BRA    1736
16D4:  MOVF   xFF,W
16D6:  SUBLW  30
16D8:  BNZ   177A
16DA:  MOVLB  1
16DC:  MOVF   x00,W
16DE:  SUBLW  30
16E0:  BTFSC  FD8.2
16E2:  BRA    16E8
16E4:  MOVLB  0
16E6:  BRA    177A
16E8:  MOVF   x01,W
16EA:  SUBLW  30
16EC:  BTFSC  FD8.2
16EE:  BRA    16F4
16F0:  MOVLB  0
16F2:  BRA    177A
16F4:  MOVF   x02,W
16F6:  SUBLW  30
16F8:  BTFSC  FD8.2
16FA:  BRA    1700
16FC:  MOVLB  0
16FE:  BRA    177A
1700:  MOVF   x03,W
1702:  SUBLW  30
1704:  BTFSC  FD8.2
1706:  BRA    170C
1708:  MOVLB  0
170A:  BRA    177A
170C:  MOVF   x04,W
170E:  SUBLW  30
1710:  BTFSC  FD8.2
1712:  BRA    1718
1714:  MOVLB  0
1716:  BRA    177A
1718:  MOVF   x05,W
171A:  SUBLW  31
171C:  BTFSC  FD8.2
171E:  BRA    1724
1720:  MOVLB  0
1722:  BRA    177A
1724:  MOVF   x06,W
1726:  SUBLW  30
1728:  BTFSC  FD8.2
172A:  BRA    1730
172C:  MOVLB  0
172E:  BRA    177A
1730:  MOVLB  0
1732:  DECFSZ xDC,W
1734:  BRA    177A
....................     { 
....................      deco_tramaRx(); 
1736:  BRA    0FFC
....................      dato_completo=0; 
1738:  CLRF   xDC
....................      if ((tx_placa==1)&& (espera_placa_uno!=max_espera))encender_led(1); 
173A:  DECFSZ xDF,W
173C:  BRA    1756
173E:  MOVLB  1
1740:  MOVF   xA6,W
1742:  SUBWF  xA4,W
1744:  BTFSS  FD8.2
1746:  BRA    174C
1748:  MOVLB  0
174A:  BRA    1756
174C:  MOVLW  01
174E:  MOVLB  2
1750:  MOVWF  x51
1752:  MOVLB  0
1754:  RCALL  137E
....................      if ((tx_placa==2)&&(espera_placa_dos!=max_espera))encender_led(2);  
1756:  MOVF   xDF,W
1758:  SUBLW  02
175A:  BNZ   1774
175C:  MOVLB  1
175E:  MOVF   xA6,W
1760:  SUBWF  xA5,W
1762:  BTFSS  FD8.2
1764:  BRA    176A
1766:  MOVLB  0
1768:  BRA    1774
176A:  MOVLW  02
176C:  MOVLB  2
176E:  MOVWF  x51
1770:  MOVLB  0
1772:  RCALL  137E
....................      estado_siguiente=STATE_SEND; 
1774:  MOVLW  01
1776:  MOVLB  1
1778:  MOVWF  x50
....................     } 
....................     if ((espera_placa_uno==max_espera)&&(tx_placa==1)) 
177A:  MOVLB  1
177C:  MOVF   xA6,W
177E:  SUBWF  xA4,W
1780:  BNZ   17A2
1782:  MOVLB  0
1784:  DECFSZ xDF,W
1786:  BRA    178A
1788:  BRA    178E
178A:  MOVLB  1
178C:  BRA    17A2
....................     { 
....................       estado_siguiente=STATE_SEND; 
178E:  MOVLW  01
1790:  MOVLB  1
1792:  MOVWF  x50
....................       dato_completo=0;encender_led(0); 
1794:  MOVLB  0
1796:  CLRF   xDC
1798:  MOVLB  2
179A:  CLRF   x51
179C:  MOVLB  0
179E:  RCALL  137E
17A0:  MOVLB  1
....................     } 
....................     if((espera_placa_dos==max_espera)&&(tx_placa==2)) 
17A2:  MOVF   xA6,W
17A4:  SUBWF  xA5,W
17A6:  BNZ   17C8
17A8:  MOVLB  0
17AA:  MOVF   xDF,W
17AC:  SUBLW  02
17AE:  BTFSC  FD8.2
17B0:  BRA    17B6
17B2:  MOVLB  1
17B4:  BRA    17C8
....................     { 
....................       estado_siguiente=STATE_SEND; 
17B6:  MOVLW  01
17B8:  MOVLB  1
17BA:  MOVWF  x50
....................       dato_completo=0;encender_led(0); 
17BC:  MOVLB  0
17BE:  CLRF   xDC
17C0:  MOVLB  2
17C2:  CLRF   x51
17C4:  MOVLB  0
17C6:  RCALL  137E
....................     } 
....................     break; 
17C8:  MOVLB  0
17CA:  BRA    17CC
....................     } 
....................    } 
.................... } 
17CC:  MOVLW  CC
17CE:  MOVLB  1
17D0:  MOVWF  xAE
17D2:  MOVLW  13
17D4:  MOVWF  xAF
17D6:  GOTO   7F16
17DA:  MOVLB  0
17DC:  RETURN 0
....................  
.................... void maquina_de_estado_pantallas() 
.................... {  
.................... switch (estado_siguiente_maquina_lcd){ 
*
2036:  MOVLB  1
2038:  MOVF   x51,W
203A:  ADDLW  EC
203C:  BTFSC  FD8.0
203E:  GOTO   5078
2042:  ADDLW  14
2044:  MOVLB  0
2046:  GOTO   5088
....................  case STATE_00: 
....................        lcd_putc('\f'); 
204A:  MOVLW  0C
204C:  MOVLB  2
204E:  MOVWF  x5E
2050:  MOVLB  0
2052:  RCALL  192E
....................        lcd_gotoxy(1,1); 
2054:  MOVLW  01
2056:  MOVLB  2
2058:  MOVWF  x5F
205A:  MOVWF  x60
205C:  MOVLB  0
205E:  RCALL  18DC
....................        lcd_putc("BIENBENIDOS"); 
2060:  MOVLW  CA
2062:  MOVWF  FF6
2064:  MOVLW  50
2066:  MOVWF  FF7
2068:  RCALL  1992
....................        lcd_gotoxy(1,2); 
206A:  MOVLW  01
206C:  MOVLB  2
206E:  MOVWF  x5F
2070:  MOVLW  02
2072:  MOVWF  x60
2074:  MOVLB  0
2076:  RCALL  18DC
....................        lcd_putc("SIST. DE RIEGO"); 
2078:  MOVLW  D6
207A:  MOVWF  FF6
207C:  MOVLW  50
207E:  MOVWF  FF7
2080:  RCALL  1992
....................        lcd_gotoxy(1,3); 
2082:  MOVLW  01
2084:  MOVLB  2
2086:  MOVWF  x5F
2088:  MOVLW  03
208A:  MOVWF  x60
208C:  MOVLB  0
208E:  RCALL  18DC
....................        lcd_putc("Version 3.0"); 
2090:  MOVLW  E6
2092:  MOVWF  FF6
2094:  MOVLW  50
2096:  MOVWF  FF7
2098:  RCALL  1992
....................        lcd_gotoxy(1,4); 
209A:  MOVLW  01
209C:  MOVLB  2
209E:  MOVWF  x5F
20A0:  MOVLW  04
20A2:  MOVWF  x60
20A4:  MOVLB  0
20A6:  RCALL  18DC
....................        lcd_putc("UNCA"); 
20A8:  MOVLW  F2
20AA:  MOVWF  FF6
20AC:  MOVLW  50
20AE:  MOVWF  FF7
20B0:  RCALL  1992
....................        delay_ms(1050); 
20B2:  MOVLW  05
20B4:  MOVLB  2
20B6:  MOVWF  x51
20B8:  MOVLW  D2
20BA:  MOVWF  x5F
20BC:  MOVLB  0
20BE:  CALL   0D34
20C2:  MOVLB  2
20C4:  DECFSZ x51,F
20C6:  BRA    20B8
....................        estado_siguiente_maquina_lcd=STATE_01; 
20C8:  MOVLW  01
20CA:  MOVLB  1
20CC:  MOVWF  x51
....................        num_veces=0; 
20CE:  CLRF   x53
....................        tecla='Z'; 
20D0:  MOVLW  5A
20D2:  MOVWF  1F
....................        comando_tx=8; 
20D4:  CLRF   x4C
20D6:  MOVLW  08
20D8:  MOVWF  x4B
....................  break; 
20DA:  GOTO   5078
....................  case STATE_01: 
....................     if (num_veces==0) 
20DE:  MOVLB  1
20E0:  MOVF   x53,F
20E2:  BTFSS  FD8.2
20E4:  BRA    21D6
....................     { 
....................        lcd_putc('\f'); 
20E6:  MOVLW  0C
20E8:  MOVLB  2
20EA:  MOVWF  x5E
20EC:  MOVLB  0
20EE:  RCALL  192E
....................        lcd_gotoxy(1,1); 
20F0:  MOVLW  01
20F2:  MOVLB  2
20F4:  MOVWF  x5F
20F6:  MOVWF  x60
20F8:  MOVLB  0
20FA:  CALL   18DC
....................        lcd_putc(" *FECHA Y HORA*"); 
20FE:  MOVLW  F8
2100:  MOVWF  FF6
2102:  MOVLW  50
2104:  MOVWF  FF7
2106:  RCALL  1992
....................        lcd_gotoxy(1,4); 
2108:  MOVLW  01
210A:  MOVLB  2
210C:  MOVWF  x5F
210E:  MOVLW  04
2110:  MOVWF  x60
2112:  MOVLB  0
2114:  CALL   18DC
....................        lcd_putc("Si[F1],No[F2]"); 
2118:  MOVLW  08
211A:  MOVWF  FF6
211C:  MOVLW  51
211E:  MOVWF  FF7
2120:  RCALL  1992
....................        ind1=0; 
2122:  MOVLB  1
2124:  CLRF   x55
....................        ind2=0;  
2126:  CLRF   x56
....................        ind3=0; 
2128:  CLRF   x57
....................        ind4=0; 
212A:  CLRF   x58
....................        ind5=0; 
212C:  CLRF   x59
....................        num_veces=1;  tecla='Z'; 
212E:  MOVLW  01
2130:  MOVWF  x53
2132:  MOVLW  5A
2134:  MOVWF  1F
....................        for(i=0;i<=2;i++) dato1[i]='0'; 
2136:  CLRF   21
2138:  MOVF   21,W
213A:  SUBLW  02
213C:  BNC   2154
213E:  CLRF   03
2140:  MOVF   21,W
2142:  ADDLW  38
2144:  MOVWF  FE9
2146:  MOVLW  01
2148:  ADDWFC 03,W
214A:  MOVWF  FEA
214C:  MOVLW  30
214E:  MOVWF  FEF
2150:  INCF   21,F
2152:  BRA    2138
....................        for(i=0;i<=2;i++) dato2[i]='0'; 
2154:  CLRF   21
2156:  MOVF   21,W
2158:  SUBLW  02
215A:  BNC   2172
215C:  CLRF   03
215E:  MOVF   21,W
2160:  ADDLW  3B
2162:  MOVWF  FE9
2164:  MOVLW  01
2166:  ADDWFC 03,W
2168:  MOVWF  FEA
216A:  MOVLW  30
216C:  MOVWF  FEF
216E:  INCF   21,F
2170:  BRA    2156
....................        for(i=0;i<=2;i++) dato3[i]='0';  
2172:  CLRF   21
2174:  MOVF   21,W
2176:  SUBLW  02
2178:  BNC   2190
217A:  CLRF   03
217C:  MOVF   21,W
217E:  ADDLW  3E
2180:  MOVWF  FE9
2182:  MOVLW  01
2184:  ADDWFC 03,W
2186:  MOVWF  FEA
2188:  MOVLW  30
218A:  MOVWF  FEF
218C:  INCF   21,F
218E:  BRA    2174
....................        for(i=0;i<=2;i++) dato4[i]='0'; 
2190:  CLRF   21
2192:  MOVF   21,W
2194:  SUBLW  02
2196:  BNC   21AE
2198:  CLRF   03
219A:  MOVF   21,W
219C:  ADDLW  41
219E:  MOVWF  FE9
21A0:  MOVLW  01
21A2:  ADDWFC 03,W
21A4:  MOVWF  FEA
21A6:  MOVLW  30
21A8:  MOVWF  FEF
21AA:  INCF   21,F
21AC:  BRA    2192
....................        for(i=0;i<=2;i++) dato5[i]='0'; 
21AE:  CLRF   21
21B0:  MOVF   21,W
21B2:  SUBLW  02
21B4:  BNC   21CC
21B6:  CLRF   03
21B8:  MOVF   21,W
21BA:  ADDLW  44
21BC:  MOVWF  FE9
21BE:  MOVLW  01
21C0:  ADDWFC 03,W
21C2:  MOVWF  FEA
21C4:  MOVLW  30
21C6:  MOVWF  FEF
21C8:  INCF   21,F
21CA:  BRA    21B0
....................        bandera_modifica=0; 
21CC:  CLRF   x4F
....................        num_veces=1;   tecla='Z'; 
21CE:  MOVLW  01
21D0:  MOVWF  x53
21D2:  MOVLW  5A
21D4:  MOVWF  1F
....................     } 
....................     if (bandera_modifica==0) 
21D6:  MOVF   x4F,F
21D8:  BTFSS  FD8.2
21DA:  BRA    23EA
....................     { 
....................       lcd_gotoxy(1,2); 
21DC:  MOVLW  01
21DE:  MOVLB  2
21E0:  MOVWF  x5F
21E2:  MOVLW  02
21E4:  MOVWF  x60
21E6:  MOVLB  0
21E8:  CALL   18DC
....................       lcd_putc("           "); 
21EC:  MOVLW  16
21EE:  MOVWF  FF6
21F0:  MOVLW  51
21F2:  MOVWF  FF7
21F4:  CALL   1992
....................       lcd_gotoxy(1,2); 
21F8:  MOVLW  01
21FA:  MOVLB  2
21FC:  MOVWF  x5F
21FE:  MOVLW  02
2200:  MOVWF  x60
2202:  MOVLB  0
2204:  CALL   18DC
....................       if (dia<10)   printf(lcd_putc,"Fecha:0%u",dia);  else printf(lcd_putc,"Fecha:%u",dia); 
2208:  MOVF   x7C,W
220A:  SUBLW  09
220C:  BNC   2234
220E:  MOVLW  22
2210:  MOVWF  FF6
2212:  MOVLW  51
2214:  MOVWF  FF7
2216:  MOVLW  07
2218:  MOVLB  2
221A:  MOVWF  x55
221C:  MOVLB  0
221E:  CALL   19B2
2222:  MOVFF  7C,251
2226:  MOVLW  1B
2228:  MOVLB  2
222A:  MOVWF  x52
222C:  MOVLB  0
222E:  CALL   19DA
2232:  BRA    2258
2234:  MOVLW  2C
2236:  MOVWF  FF6
2238:  MOVLW  51
223A:  MOVWF  FF7
223C:  MOVLW  06
223E:  MOVLB  2
2240:  MOVWF  x55
2242:  MOVLB  0
2244:  CALL   19B2
2248:  MOVFF  7C,251
224C:  MOVLW  1B
224E:  MOVLB  2
2250:  MOVWF  x52
2252:  MOVLB  0
2254:  CALL   19DA
....................       lcd_gotoxy(9,2); 
2258:  MOVLW  09
225A:  MOVLB  2
225C:  MOVWF  x5F
225E:  MOVLW  02
2260:  MOVWF  x60
2262:  MOVLB  0
2264:  CALL   18DC
....................       if (mes<10) printf(lcd_putc,"/0%u",mes); else  printf(lcd_putc,"/%u",mes); 
2268:  MOVF   x7D,W
226A:  SUBLW  09
226C:  BNC   2298
226E:  MOVLW  2F
2270:  MOVLB  2
2272:  MOVWF  x5E
2274:  MOVLB  0
2276:  CALL   192E
227A:  MOVLW  30
227C:  MOVLB  2
227E:  MOVWF  x5E
2280:  MOVLB  0
2282:  CALL   192E
2286:  MOVFF  7D,251
228A:  MOVLW  1B
228C:  MOVLB  2
228E:  MOVWF  x52
2290:  MOVLB  0
2292:  CALL   19DA
2296:  BRA    22B4
2298:  MOVLW  2F
229A:  MOVLB  2
229C:  MOVWF  x5E
229E:  MOVLB  0
22A0:  CALL   192E
22A4:  MOVFF  7D,251
22A8:  MOVLW  1B
22AA:  MOVLB  2
22AC:  MOVWF  x52
22AE:  MOVLB  0
22B0:  CALL   19DA
....................       lcd_gotoxy(12,2); 
22B4:  MOVLW  0C
22B6:  MOVLB  2
22B8:  MOVWF  x5F
22BA:  MOVLW  02
22BC:  MOVWF  x60
22BE:  MOVLB  0
22C0:  CALL   18DC
....................       if (anio<10) printf(lcd_putc,"/0%u",anio); else printf(lcd_putc,"/%u",anio); 
22C4:  MOVF   x7E,W
22C6:  SUBLW  09
22C8:  BNC   22F4
22CA:  MOVLW  2F
22CC:  MOVLB  2
22CE:  MOVWF  x5E
22D0:  MOVLB  0
22D2:  CALL   192E
22D6:  MOVLW  30
22D8:  MOVLB  2
22DA:  MOVWF  x5E
22DC:  MOVLB  0
22DE:  CALL   192E
22E2:  MOVFF  7E,251
22E6:  MOVLW  1B
22E8:  MOVLB  2
22EA:  MOVWF  x52
22EC:  MOVLB  0
22EE:  CALL   19DA
22F2:  BRA    2310
22F4:  MOVLW  2F
22F6:  MOVLB  2
22F8:  MOVWF  x5E
22FA:  MOVLB  0
22FC:  CALL   192E
2300:  MOVFF  7E,251
2304:  MOVLW  1B
2306:  MOVLB  2
2308:  MOVWF  x52
230A:  MOVLB  0
230C:  CALL   19DA
....................       lcd_gotoxy(1,3); 
2310:  MOVLW  01
2312:  MOVLB  2
2314:  MOVWF  x5F
2316:  MOVLW  03
2318:  MOVWF  x60
231A:  MOVLB  0
231C:  CALL   18DC
....................       lcd_putc("           "); 
2320:  MOVLW  36
2322:  MOVWF  FF6
2324:  MOVLW  51
2326:  MOVWF  FF7
2328:  CALL   1992
....................       lcd_gotoxy(1,3); 
232C:  MOVLW  01
232E:  MOVLB  2
2330:  MOVWF  x5F
2332:  MOVLW  03
2334:  MOVWF  x60
2336:  MOVLB  0
2338:  CALL   18DC
....................       if (hora<10)  printf(lcd_putc,"Hora:0%u:",hora);else printf(lcd_putc,"Hora:%u:",hora); 
233C:  MOVF   x7B,W
233E:  SUBLW  09
2340:  BNC   2374
2342:  MOVLW  42
2344:  MOVWF  FF6
2346:  MOVLW  51
2348:  MOVWF  FF7
234A:  MOVLW  06
234C:  MOVLB  2
234E:  MOVWF  x55
2350:  MOVLB  0
2352:  CALL   19B2
2356:  MOVFF  7B,251
235A:  MOVLW  1B
235C:  MOVLB  2
235E:  MOVWF  x52
2360:  MOVLB  0
2362:  CALL   19DA
2366:  MOVLW  3A
2368:  MOVLB  2
236A:  MOVWF  x5E
236C:  MOVLB  0
236E:  CALL   192E
2372:  BRA    23A4
2374:  MOVLW  4C
2376:  MOVWF  FF6
2378:  MOVLW  51
237A:  MOVWF  FF7
237C:  MOVLW  05
237E:  MOVLB  2
2380:  MOVWF  x55
2382:  MOVLB  0
2384:  CALL   19B2
2388:  MOVFF  7B,251
238C:  MOVLW  1B
238E:  MOVLB  2
2390:  MOVWF  x52
2392:  MOVLB  0
2394:  CALL   19DA
2398:  MOVLW  3A
239A:  MOVLB  2
239C:  MOVWF  x5E
239E:  MOVLB  0
23A0:  CALL   192E
....................       lcd_gotoxy(9,3); 
23A4:  MOVLW  09
23A6:  MOVLB  2
23A8:  MOVWF  x5F
23AA:  MOVLW  03
23AC:  MOVWF  x60
23AE:  MOVLB  0
23B0:  CALL   18DC
....................       if (minutos<10)  printf(lcd_putc,"0%u",minutos);else printf(lcd_putc,"%u",minutos); 
23B4:  MOVF   x7A,W
23B6:  SUBLW  09
23B8:  BNC   23D8
23BA:  MOVLW  30
23BC:  MOVLB  2
23BE:  MOVWF  x5E
23C0:  MOVLB  0
23C2:  CALL   192E
23C6:  MOVFF  7A,251
23CA:  MOVLW  1B
23CC:  MOVLB  2
23CE:  MOVWF  x52
23D0:  MOVLB  0
23D2:  CALL   19DA
23D6:  BRA    23E8
23D8:  MOVFF  7A,251
23DC:  MOVLW  1B
23DE:  MOVLB  2
23E0:  MOVWF  x52
23E2:  MOVLB  0
23E4:  CALL   19DA
23E8:  MOVLB  1
....................     }  
....................     if (tecla=='B') 
23EA:  MOVF   1F,W
23EC:  SUBLW  42
23EE:  BNZ   248A
....................     { 
....................       bandera_modifica=1; 
23F0:  MOVLW  01
23F2:  MOVWF  x4F
....................       lcd_gotoxy(1,2); 
23F4:  MOVLB  2
23F6:  MOVWF  x5F
23F8:  MOVLW  02
23FA:  MOVWF  x60
23FC:  MOVLB  0
23FE:  CALL   18DC
....................       lcd_putc("              "); 
2402:  MOVLW  56
2404:  MOVWF  FF6
2406:  MOVLW  51
2408:  MOVWF  FF7
240A:  CALL   1992
....................       lcd_gotoxy(1,2); 
240E:  MOVLW  01
2410:  MOVLB  2
2412:  MOVWF  x5F
2414:  MOVLW  02
2416:  MOVWF  x60
2418:  MOVLB  0
241A:  CALL   18DC
....................       lcd_putc("Fecha:??"); 
241E:  MOVLW  66
2420:  MOVWF  FF6
2422:  MOVLW  51
2424:  MOVWF  FF7
2426:  CALL   1992
....................       lcd_putc("/??"); 
242A:  MOVLW  70
242C:  MOVWF  FF6
242E:  MOVLW  51
2430:  MOVWF  FF7
2432:  CALL   1992
....................       lcd_putc("/??"); 
2436:  MOVLW  74
2438:  MOVWF  FF6
243A:  MOVLW  51
243C:  MOVWF  FF7
243E:  CALL   1992
....................       lcd_gotoxy(1,3); 
2442:  MOVLW  01
2444:  MOVLB  2
2446:  MOVWF  x5F
2448:  MOVLW  03
244A:  MOVWF  x60
244C:  MOVLB  0
244E:  CALL   18DC
....................       lcd_putc("          "); 
2452:  MOVLW  78
2454:  MOVWF  FF6
2456:  MOVLW  51
2458:  MOVWF  FF7
245A:  CALL   1992
....................       lcd_gotoxy(1,3); 
245E:  MOVLW  01
2460:  MOVLB  2
2462:  MOVWF  x5F
2464:  MOVLW  03
2466:  MOVWF  x60
2468:  MOVLB  0
246A:  CALL   18DC
....................       lcd_putc("Hora:??:??"); 
246E:  MOVLW  84
2470:  MOVWF  FF6
2472:  MOVLW  51
2474:  MOVWF  FF7
2476:  CALL   1992
....................       ind1=0; 
247A:  MOVLB  1
247C:  CLRF   x55
....................       ind2=0; 
247E:  CLRF   x56
....................       ind3=0; 
2480:  CLRF   x57
....................       ind4=0; 
2482:  CLRF   x58
....................       ind5=0; 
2484:  CLRF   x59
....................       tecla='Z'; 
2486:  MOVLW  5A
2488:  MOVWF  1F
....................     } 
....................     if (bandera_modifica==1) 
248A:  DECFSZ x4F,W
248C:  BRA    26AA
....................     { 
....................      ////////////////////////////////////////////FECHA/////////////////////////////////////////////////////////////////////  
....................      if ((tecla!='Z')&&(ind3<=1)&&(tecla!='A')&&(tecla!='B')&&(tecla!='C')&&(tecla!='D')&&(tecla!='E')&&(tecla!='F')) 
248E:  MOVF   1F,W
2490:  SUBLW  5A
2492:  BZ    24FA
2494:  MOVF   x57,W
2496:  SUBLW  01
2498:  BNC   24FA
249A:  MOVF   1F,W
249C:  SUBLW  41
249E:  BZ    24FA
24A0:  MOVF   1F,W
24A2:  SUBLW  42
24A4:  BZ    24FA
24A6:  MOVF   1F,W
24A8:  SUBLW  43
24AA:  BZ    24FA
24AC:  MOVF   1F,W
24AE:  SUBLW  44
24B0:  BZ    24FA
24B2:  MOVF   1F,W
24B4:  SUBLW  45
24B6:  BZ    24FA
24B8:  MOVF   1F,W
24BA:  SUBLW  46
24BC:  BZ    24FA
....................      { 
....................         dato3[ind3]=tecla; 
24BE:  CLRF   03
24C0:  MOVF   x57,W
24C2:  ADDLW  3E
24C4:  MOVWF  FE9
24C6:  MOVLW  01
24C8:  ADDWFC 03,W
24CA:  MOVWF  FEA
24CC:  MOVFF  1F,FEF
....................         lcd_gotoxy(7+ind3,2); 
24D0:  MOVLW  07
24D2:  ADDWF  x57,W
24D4:  MOVLB  2
24D6:  MOVWF  x51
24D8:  MOVWF  x5F
24DA:  MOVLW  02
24DC:  MOVWF  x60
24DE:  MOVLB  0
24E0:  CALL   18DC
....................         lcd_putc(tecla); 
24E4:  MOVFF  1F,25E
24E8:  CALL   192E
....................         ind3++; 
24EC:  MOVLB  1
24EE:  INCF   x57,F
....................         tecla='Z'; 
24F0:  MOVLW  5A
24F2:  MOVWF  1F
....................         if (ind3==1)  dato3[2]=0; 
24F4:  DECFSZ x57,W
24F6:  BRA    24FA
24F8:  CLRF   x40
....................      } 
....................      if ((tecla!='Z')&&(ind4<=1)&&(tecla!='A')&&(tecla!='B')&&(tecla!='C')&&(tecla!='D')&&(tecla!='E')&&(tecla!='F')) 
24FA:  MOVF   1F,W
24FC:  SUBLW  5A
24FE:  BZ    2566
2500:  MOVF   x58,W
2502:  SUBLW  01
2504:  BNC   2566
2506:  MOVF   1F,W
2508:  SUBLW  41
250A:  BZ    2566
250C:  MOVF   1F,W
250E:  SUBLW  42
2510:  BZ    2566
2512:  MOVF   1F,W
2514:  SUBLW  43
2516:  BZ    2566
2518:  MOVF   1F,W
251A:  SUBLW  44
251C:  BZ    2566
251E:  MOVF   1F,W
2520:  SUBLW  45
2522:  BZ    2566
2524:  MOVF   1F,W
2526:  SUBLW  46
2528:  BZ    2566
....................      { 
....................         dato4[ind4]=tecla; 
252A:  CLRF   03
252C:  MOVF   x58,W
252E:  ADDLW  41
2530:  MOVWF  FE9
2532:  MOVLW  01
2534:  ADDWFC 03,W
2536:  MOVWF  FEA
2538:  MOVFF  1F,FEF
....................         lcd_gotoxy(10+ind4,2); 
253C:  MOVLW  0A
253E:  ADDWF  x58,W
2540:  MOVLB  2
2542:  MOVWF  x51
2544:  MOVWF  x5F
2546:  MOVLW  02
2548:  MOVWF  x60
254A:  MOVLB  0
254C:  CALL   18DC
....................         lcd_putc(tecla); 
2550:  MOVFF  1F,25E
2554:  CALL   192E
....................         ind4++; 
2558:  MOVLB  1
255A:  INCF   x58,F
....................         tecla='Z'; 
255C:  MOVLW  5A
255E:  MOVWF  1F
....................         if (ind4==1)  dato4[2]=0; 
2560:  DECFSZ x58,W
2562:  BRA    2566
2564:  CLRF   x43
....................      } 
....................      if ((tecla!='Z')&&(ind5<=1)&&(tecla!='A')&&(tecla!='B')&&(tecla!='C')&&(tecla!='D')&&(tecla!='E')&&(tecla!='F')) 
2566:  MOVF   1F,W
2568:  SUBLW  5A
256A:  BZ    25D2
256C:  MOVF   x59,W
256E:  SUBLW  01
2570:  BNC   25D2
2572:  MOVF   1F,W
2574:  SUBLW  41
2576:  BZ    25D2
2578:  MOVF   1F,W
257A:  SUBLW  42
257C:  BZ    25D2
257E:  MOVF   1F,W
2580:  SUBLW  43
2582:  BZ    25D2
2584:  MOVF   1F,W
2586:  SUBLW  44
2588:  BZ    25D2
258A:  MOVF   1F,W
258C:  SUBLW  45
258E:  BZ    25D2
2590:  MOVF   1F,W
2592:  SUBLW  46
2594:  BZ    25D2
....................      { 
....................         dato5[ind5]=tecla; 
2596:  CLRF   03
2598:  MOVF   x59,W
259A:  ADDLW  44
259C:  MOVWF  FE9
259E:  MOVLW  01
25A0:  ADDWFC 03,W
25A2:  MOVWF  FEA
25A4:  MOVFF  1F,FEF
....................         lcd_gotoxy(13+ind5,2); 
25A8:  MOVLW  0D
25AA:  ADDWF  x59,W
25AC:  MOVLB  2
25AE:  MOVWF  x51
25B0:  MOVWF  x5F
25B2:  MOVLW  02
25B4:  MOVWF  x60
25B6:  MOVLB  0
25B8:  CALL   18DC
....................         lcd_putc(tecla); 
25BC:  MOVFF  1F,25E
25C0:  CALL   192E
....................         ind5++; 
25C4:  MOVLB  1
25C6:  INCF   x59,F
....................         tecla='Z'; 
25C8:  MOVLW  5A
25CA:  MOVWF  1F
....................         if (ind5==1)  dato5[2]=0; 
25CC:  DECFSZ x59,W
25CE:  BRA    25D2
25D0:  CLRF   x46
....................      } 
....................      //////////////////////////////////////////HORA/////////////////////////////////////////////////////////////////// 
....................      if ((tecla!='Z')&&(ind1<=1)&&(tecla!='A')&&(tecla!='B')&&(tecla!='C')&&(tecla!='D')&&(tecla!='E')&&(tecla!='F')) 
25D2:  MOVF   1F,W
25D4:  SUBLW  5A
25D6:  BZ    263E
25D8:  MOVF   x55,W
25DA:  SUBLW  01
25DC:  BNC   263E
25DE:  MOVF   1F,W
25E0:  SUBLW  41
25E2:  BZ    263E
25E4:  MOVF   1F,W
25E6:  SUBLW  42
25E8:  BZ    263E
25EA:  MOVF   1F,W
25EC:  SUBLW  43
25EE:  BZ    263E
25F0:  MOVF   1F,W
25F2:  SUBLW  44
25F4:  BZ    263E
25F6:  MOVF   1F,W
25F8:  SUBLW  45
25FA:  BZ    263E
25FC:  MOVF   1F,W
25FE:  SUBLW  46
2600:  BZ    263E
....................      { 
....................         dato1[ind1]=tecla; 
2602:  CLRF   03
2604:  MOVF   x55,W
2606:  ADDLW  38
2608:  MOVWF  FE9
260A:  MOVLW  01
260C:  ADDWFC 03,W
260E:  MOVWF  FEA
2610:  MOVFF  1F,FEF
....................         lcd_gotoxy(6+ind1,3); 
2614:  MOVLW  06
2616:  ADDWF  x55,W
2618:  MOVLB  2
261A:  MOVWF  x51
261C:  MOVWF  x5F
261E:  MOVLW  03
2620:  MOVWF  x60
2622:  MOVLB  0
2624:  CALL   18DC
....................         lcd_putc(tecla); 
2628:  MOVFF  1F,25E
262C:  CALL   192E
....................         ind1++; 
2630:  MOVLB  1
2632:  INCF   x55,F
....................         tecla='Z'; 
2634:  MOVLW  5A
2636:  MOVWF  1F
....................         if (ind1==1)  dato1[2]=0; 
2638:  DECFSZ x55,W
263A:  BRA    263E
263C:  CLRF   x3A
....................      } 
....................      if ((tecla!='Z')&&(ind2<=1)&&(tecla!='A')&&(tecla!='B')&&(tecla!='C')&&(tecla!='D')&&(tecla!='E')&&(tecla!='F')) 
263E:  MOVF   1F,W
2640:  SUBLW  5A
2642:  BZ    26AA
2644:  MOVF   x56,W
2646:  SUBLW  01
2648:  BNC   26AA
264A:  MOVF   1F,W
264C:  SUBLW  41
264E:  BZ    26AA
2650:  MOVF   1F,W
2652:  SUBLW  42
2654:  BZ    26AA
2656:  MOVF   1F,W
2658:  SUBLW  43
265A:  BZ    26AA
265C:  MOVF   1F,W
265E:  SUBLW  44
2660:  BZ    26AA
2662:  MOVF   1F,W
2664:  SUBLW  45
2666:  BZ    26AA
2668:  MOVF   1F,W
266A:  SUBLW  46
266C:  BZ    26AA
....................      { 
....................         dato2[ind2]=tecla; 
266E:  CLRF   03
2670:  MOVF   x56,W
2672:  ADDLW  3B
2674:  MOVWF  FE9
2676:  MOVLW  01
2678:  ADDWFC 03,W
267A:  MOVWF  FEA
267C:  MOVFF  1F,FEF
....................         lcd_gotoxy(9+ind2,3); 
2680:  MOVLW  09
2682:  ADDWF  x56,W
2684:  MOVLB  2
2686:  MOVWF  x51
2688:  MOVWF  x5F
268A:  MOVLW  03
268C:  MOVWF  x60
268E:  MOVLB  0
2690:  CALL   18DC
....................         lcd_putc(tecla); 
2694:  MOVFF  1F,25E
2698:  CALL   192E
....................         ind2++; 
269C:  MOVLB  1
269E:  INCF   x56,F
....................         tecla='Z'; 
26A0:  MOVLW  5A
26A2:  MOVWF  1F
....................         if (ind2==1)  dato2[2]=0; 
26A4:  DECFSZ x56,W
26A6:  BRA    26AA
26A8:  CLRF   x3D
....................        } 
....................      } 
....................      estado_siguiente_maquina_lcd=STATE_01; 
26AA:  MOVLW  01
26AC:  MOVWF  x51
....................      ////////////////////////////////////////////////////////////////////////////////////////////////////////////////////////// 
....................      if ((tecla=='A')&&(bandera_modifica==1)) 
26AE:  MOVF   1F,W
26B0:  SUBLW  41
26B2:  BTFSS  FD8.2
26B4:  BRA    289C
26B6:  DECFSZ x4F,W
26B8:  BRA    289C
....................      {  
....................         hora  =atoi(dato1); 
26BA:  MOVLW  01
26BC:  MOVLB  2
26BE:  MOVWF  x52
26C0:  MOVLW  38
26C2:  MOVWF  x51
26C4:  MOVLB  0
26C6:  CALL   1AAA
26CA:  MOVFF  01,7B
....................         minutos  =atoi(dato2); 
26CE:  MOVLW  01
26D0:  MOVLB  2
26D2:  MOVWF  x52
26D4:  MOVLW  3B
26D6:  MOVWF  x51
26D8:  MOVLB  0
26DA:  CALL   1AAA
26DE:  MOVFF  01,7A
....................         dia  = atoi(dato3); 
26E2:  MOVLW  01
26E4:  MOVLB  2
26E6:  MOVWF  x52
26E8:  MOVLW  3E
26EA:  MOVWF  x51
26EC:  MOVLB  0
26EE:  CALL   1AAA
26F2:  MOVFF  01,7C
....................         mes  = atoi(dato4); 
26F6:  MOVLW  01
26F8:  MOVLB  2
26FA:  MOVWF  x52
26FC:  MOVLW  41
26FE:  MOVWF  x51
2700:  MOVLB  0
2702:  CALL   1AAA
2706:  MOVFF  01,7D
....................         anio = atoi(dato5); 
270A:  MOVLW  01
270C:  MOVLB  2
270E:  MOVWF  x52
2710:  MOVLW  44
2712:  MOVWF  x51
2714:  MOVLB  0
2716:  CALL   1AAA
271A:  MOVFF  01,7E
....................         dow1 = 2; 
271E:  MOVLW  02
2720:  MOVWF  x7F
....................         segundos  =  0; 
2722:  CLRF   x79
....................      if ((hora>=0)&&(hora<=23)&&(minutos>=0)&&(minutos<=60)&&(dia>=1)&&(dia<=31)&&(mes>=1)&&(mes<=12)&&(anio>=0)&&(anio<=99)) 
2724:  MOVF   x7B,W
2726:  SUBLW  17
2728:  BNC   27A0
272A:  MOVF   x7A,W
272C:  SUBLW  3C
272E:  BNC   27A0
2730:  MOVF   x7C,W
2732:  SUBLW  00
2734:  BC    27A0
2736:  MOVF   x7C,W
2738:  SUBLW  1F
273A:  BNC   27A0
273C:  MOVF   x7D,W
273E:  SUBLW  00
2740:  BC    27A0
2742:  MOVF   x7D,W
2744:  SUBLW  0C
2746:  BNC   27A0
2748:  MOVF   x7E,W
274A:  SUBLW  63
274C:  BNC   27A0
....................      { 
....................         bandera_modifica==0; 
274E:  MOVLB  1
2750:  MOVF   x4F,F
2752:  BZ    2758
2754:  MOVLW  00
2756:  BRA    2758
....................         delay_ms(15); 
2758:  MOVLW  0F
275A:  MOVLB  2
275C:  MOVWF  x5F
275E:  MOVLB  0
2760:  CALL   0D34
....................         ds1307_set_date_time(dia,mes,anio,dow1,hora,minutos,segundos); 
2764:  MOVFF  7C,251
2768:  MOVFF  7D,252
276C:  MOVFF  7E,253
2770:  MOVFF  7F,254
2774:  MOVFF  7B,255
2778:  MOVFF  7A,256
277C:  MOVFF  79,257
2780:  GOTO   1CEA
....................         delay_ms(15);  
2784:  MOVLW  0F
2786:  MOVLB  2
2788:  MOVWF  x5F
278A:  MOVLB  0
278C:  CALL   0D34
....................         estado_siguiente_maquina_lcd=STATE_02; 
2790:  MOVLW  02
2792:  MOVLB  1
2794:  MOVWF  x51
....................         num_veces=0;tecla='Z'; 
2796:  CLRF   x53
2798:  MOVLW  5A
279A:  MOVWF  1F
....................         } else 
279C:  BRA    289C
279E:  MOVLB  0
....................           { 
....................            lcd_gotoxy(1,3); 
27A0:  MOVLW  01
27A2:  MOVLB  2
27A4:  MOVWF  x5F
27A6:  MOVLW  03
27A8:  MOVWF  x60
27AA:  MOVLB  0
27AC:  CALL   18DC
....................            lcd_putc("          "); 
27B0:  MOVLW  90
27B2:  MOVWF  FF6
27B4:  MOVLW  51
27B6:  MOVWF  FF7
27B8:  CALL   1992
....................            lcd_gotoxy(1,3); 
27BC:  MOVLW  01
27BE:  MOVLB  2
27C0:  MOVWF  x5F
27C2:  MOVLW  03
27C4:  MOVWF  x60
27C6:  MOVLB  0
27C8:  CALL   18DC
....................            lcd_putc("error"); 
27CC:  MOVLW  9C
27CE:  MOVWF  FF6
27D0:  MOVLW  51
27D2:  MOVWF  FF7
27D4:  CALL   1992
....................            delay_ms(500); 
27D8:  MOVLW  02
27DA:  MOVLB  2
27DC:  MOVWF  x51
27DE:  MOVLW  FA
27E0:  MOVWF  x5F
27E2:  MOVLB  0
27E4:  CALL   0D34
27E8:  MOVLB  2
27EA:  DECFSZ x51,F
27EC:  BRA    27DE
....................            lcd_gotoxy(1,3); 
27EE:  MOVLW  01
27F0:  MOVWF  x5F
27F2:  MOVLW  03
27F4:  MOVWF  x60
27F6:  MOVLB  0
27F8:  CALL   18DC
....................            lcd_putc("Hora:??:??"); 
27FC:  MOVLW  A2
27FE:  MOVWF  FF6
2800:  MOVLW  51
2802:  MOVWF  FF7
2804:  CALL   1992
....................            lcd_gotoxy(1,2); 
2808:  MOVLW  01
280A:  MOVLB  2
280C:  MOVWF  x5F
280E:  MOVLW  02
2810:  MOVWF  x60
2812:  MOVLB  0
2814:  CALL   18DC
....................            lcd_putc("          "); 
2818:  MOVLW  AE
281A:  MOVWF  FF6
281C:  MOVLW  51
281E:  MOVWF  FF7
2820:  CALL   1992
....................            lcd_gotoxy(1,2); 
2824:  MOVLW  01
2826:  MOVLB  2
2828:  MOVWF  x5F
282A:  MOVLW  02
282C:  MOVWF  x60
282E:  MOVLB  0
2830:  CALL   18DC
....................            lcd_putc("error"); 
2834:  MOVLW  BA
2836:  MOVWF  FF6
2838:  MOVLW  51
283A:  MOVWF  FF7
283C:  CALL   1992
....................            delay_ms(500); 
2840:  MOVLW  02
2842:  MOVLB  2
2844:  MOVWF  x51
2846:  MOVLW  FA
2848:  MOVWF  x5F
284A:  MOVLB  0
284C:  CALL   0D34
2850:  MOVLB  2
2852:  DECFSZ x51,F
2854:  BRA    2846
....................            lcd_gotoxy(1,2); 
2856:  MOVLW  01
2858:  MOVWF  x5F
285A:  MOVLW  02
285C:  MOVWF  x60
285E:  MOVLB  0
2860:  CALL   18DC
....................            lcd_putc("Fecha:??"); 
2864:  MOVLW  C0
2866:  MOVWF  FF6
2868:  MOVLW  51
286A:  MOVWF  FF7
286C:  CALL   1992
....................            lcd_putc("/??"); 
2870:  MOVLW  CA
2872:  MOVWF  FF6
2874:  MOVLW  51
2876:  MOVWF  FF7
2878:  CALL   1992
....................            lcd_putc("/??"); 
287C:  MOVLW  CE
287E:  MOVWF  FF6
2880:  MOVLW  51
2882:  MOVWF  FF7
2884:  CALL   1992
....................            ind1=0; 
2888:  MOVLB  1
288A:  CLRF   x55
....................            ind2=0; 
288C:  CLRF   x56
....................            ind3=0; 
288E:  CLRF   x57
....................            ind4=0; 
2890:  CLRF   x58
....................            ind5=0; 
2892:  CLRF   x59
....................            tecla='Z'; 
2894:  MOVLW  5A
2896:  MOVWF  1F
....................            bandera_modifica=1; 
2898:  MOVLW  01
289A:  MOVWF  x4F
....................           }  
....................        } 
....................        if ((tecla=='A')&&(bandera_modifica==0)) 
289C:  MOVF   1F,W
289E:  SUBLW  41
28A0:  BNZ   28B0
28A2:  MOVF   x4F,F
28A4:  BNZ   28B0
....................        { 
....................         estado_siguiente_maquina_lcd=STATE_02; 
28A6:  MOVLW  02
28A8:  MOVWF  x51
....................         tecla='Z'; num_veces=0; 
28AA:  MOVLW  5A
28AC:  MOVWF  1F
28AE:  CLRF   x53
....................        } 
....................  break; 
28B0:  GOTO   5078
....................  case STATE_02: 
....................        if (num_veces==0) 
28B4:  MOVLB  1
28B6:  MOVF   x53,F
28B8:  BNZ   293E
....................        {  
....................         lcd_putc('\f'); 
28BA:  MOVLW  0C
28BC:  MOVLB  2
28BE:  MOVWF  x5E
28C0:  MOVLB  0
28C2:  CALL   192E
....................         lcd_gotoxy(1,1); 
28C6:  MOVLW  01
28C8:  MOVLB  2
28CA:  MOVWF  x5F
28CC:  MOVWF  x60
28CE:  MOVLB  0
28D0:  CALL   18DC
....................         lcd_putc("   **MENU**  1/3"); 
28D4:  MOVLW  D2
28D6:  MOVWF  FF6
28D8:  MOVLW  51
28DA:  MOVWF  FF7
28DC:  CALL   1992
....................         lcd_gotoxy(1,2); 
28E0:  MOVLW  01
28E2:  MOVLB  2
28E4:  MOVWF  x5F
28E6:  MOVLW  02
28E8:  MOVWF  x60
28EA:  MOVLB  0
28EC:  CALL   18DC
....................         lcd_putc("F1:Configura"); 
28F0:  MOVLW  E4
28F2:  MOVWF  FF6
28F4:  MOVLW  51
28F6:  MOVWF  FF7
28F8:  CALL   1992
....................         lcd_gotoxy(1,3); 
28FC:  MOVLW  01
28FE:  MOVLB  2
2900:  MOVWF  x5F
2902:  MOVLW  03
2904:  MOVWF  x60
2906:  MOVLB  0
2908:  CALL   18DC
....................         lcd_putc("F2:Fecha y Hora"); 
290C:  MOVLW  F2
290E:  MOVWF  FF6
2910:  MOVLW  51
2912:  MOVWF  FF7
2914:  CALL   1992
....................         lcd_gotoxy(1,4); 
2918:  MOVLW  01
291A:  MOVLB  2
291C:  MOVWF  x5F
291E:  MOVLW  04
2920:  MOVWF  x60
2922:  MOVLB  0
2924:  CALL   18DC
....................         lcd_putc("F3:Mas"); 
2928:  MOVLW  02
292A:  MOVWF  FF6
292C:  MOVLW  52
292E:  MOVWF  FF7
2930:  CALL   1992
....................         num_veces=1;  tecla='Z'; 
2934:  MOVLW  01
2936:  MOVLB  1
2938:  MOVWF  x53
293A:  MOVLW  5A
293C:  MOVWF  1F
....................        } 
....................        if (tecla=='A') 
293E:  MOVF   1F,W
2940:  SUBLW  41
2942:  BNZ   294E
....................        { 
....................         estado_siguiente_maquina_lcd=STATE_02_BCD_0; 
2944:  MOVLW  06
2946:  MOVWF  x51
....................         tecla='Z';  
2948:  MOVLW  5A
294A:  MOVWF  1F
....................         num_veces=0; 
294C:  CLRF   x53
....................        } 
....................        if (tecla=='B') 
294E:  MOVF   1F,W
2950:  SUBLW  42
2952:  BNZ   295E
....................        { 
....................         estado_siguiente_maquina_lcd=STATE_01; 
2954:  MOVLW  01
2956:  MOVWF  x51
....................         tecla='Z';  
2958:  MOVLW  5A
295A:  MOVWF  1F
....................         num_veces=0; 
295C:  CLRF   x53
....................        } 
....................        if (tecla=='C') 
295E:  MOVF   1F,W
2960:  SUBLW  43
2962:  BNZ   296E
....................        { 
....................         estado_siguiente_maquina_lcd=STATE_03; 
2964:  MOVLW  03
2966:  MOVWF  x51
....................         tecla='Z'; 
2968:  MOVLW  5A
296A:  MOVWF  1F
....................         num_veces=0; 
296C:  CLRF   x53
....................        } 
....................  break; 
296E:  GOTO   5078
....................  case STATE_03: 
....................       if (num_veces==0) 
2972:  MOVLB  1
2974:  MOVF   x53,F
2976:  BNZ   29FC
....................        { 
....................         lcd_putc('\f'); 
2978:  MOVLW  0C
297A:  MOVLB  2
297C:  MOVWF  x5E
297E:  MOVLB  0
2980:  CALL   192E
....................         lcd_gotoxy(1,1); 
2984:  MOVLW  01
2986:  MOVLB  2
2988:  MOVWF  x5F
298A:  MOVWF  x60
298C:  MOVLB  0
298E:  CALL   18DC
....................         lcd_putc("   **MENU**  2/3"); 
2992:  MOVLW  0A
2994:  MOVWF  FF6
2996:  MOVLW  52
2998:  MOVWF  FF7
299A:  CALL   1992
....................         lcd_gotoxy(1,2); 
299E:  MOVLW  01
29A0:  MOVLB  2
29A2:  MOVWF  x5F
29A4:  MOVLW  02
29A6:  MOVWF  x60
29A8:  MOVLB  0
29AA:  CALL   18DC
....................         lcd_putc("F1:Ver Estado"); 
29AE:  MOVLW  1C
29B0:  MOVWF  FF6
29B2:  MOVLW  52
29B4:  MOVWF  FF7
29B6:  CALL   1992
....................         lcd_gotoxy(1,3); 
29BA:  MOVLW  01
29BC:  MOVLB  2
29BE:  MOVWF  x5F
29C0:  MOVLW  03
29C2:  MOVWF  x60
29C4:  MOVLB  0
29C6:  CALL   18DC
....................         lcd_putc("F2:Manual "); 
29CA:  MOVLW  2A
29CC:  MOVWF  FF6
29CE:  MOVLW  52
29D0:  MOVWF  FF7
29D2:  CALL   1992
....................         lcd_gotoxy(1,4); 
29D6:  MOVLW  01
29D8:  MOVLB  2
29DA:  MOVWF  x5F
29DC:  MOVLW  04
29DE:  MOVWF  x60
29E0:  MOVLB  0
29E2:  CALL   18DC
....................         lcd_putc("F3:Mas"); 
29E6:  MOVLW  36
29E8:  MOVWF  FF6
29EA:  MOVLW  52
29EC:  MOVWF  FF7
29EE:  CALL   1992
....................         num_veces=1; tecla='Z'; 
29F2:  MOVLW  01
29F4:  MOVLB  1
29F6:  MOVWF  x53
29F8:  MOVLW  5A
29FA:  MOVWF  1F
....................        } 
....................        estado_siguiente_maquina_lcd=STATE_03; 
29FC:  MOVLW  03
29FE:  MOVWF  x51
....................        if (tecla=='A') 
2A00:  MOVF   1F,W
2A02:  SUBLW  41
2A04:  BNZ   2A10
....................        { 
....................         estado_siguiente_maquina_lcd=STATE_03_G; 
2A06:  MOVLW  0B
2A08:  MOVWF  x51
....................         num_veces=0; 
2A0A:  CLRF   x53
....................         tecla='Z'; 
2A0C:  MOVLW  5A
2A0E:  MOVWF  1F
....................        } 
....................        if (tecla=='B') 
2A10:  MOVF   1F,W
2A12:  SUBLW  42
2A14:  BNZ   2A34
....................        { 
....................         estado_siguiente_maquina_lcd=STATE_03_H; 
2A16:  MOVLW  0D
2A18:  MOVWF  x51
....................         num_veces=0; 
2A1A:  CLRF   x53
....................         tecla='Z'; 
2A1C:  MOVLW  5A
2A1E:  MOVWF  1F
....................         manual[1]=45;manual[2]=45; 
2A20:  MOVLB  0
2A22:  CLRF   xB3
2A24:  MOVLW  2D
2A26:  MOVWF  xB2
2A28:  CLRF   xB5
2A2A:  MOVWF  xB4
....................         comando_tx=4; 
2A2C:  MOVLB  1
2A2E:  CLRF   x4C
2A30:  MOVLW  04
2A32:  MOVWF  x4B
....................        } 
....................        if (tecla=='C')  
2A34:  MOVF   1F,W
2A36:  SUBLW  43
2A38:  BNZ   2A44
....................        { 
....................         estado_siguiente_maquina_lcd=STATE_04; 
2A3A:  MOVLW  04
2A3C:  MOVWF  x51
....................         num_veces=0; 
2A3E:  CLRF   x53
....................         tecla='Z'; 
2A40:  MOVLW  5A
2A42:  MOVWF  1F
....................        } 
....................  break; 
2A44:  GOTO   5078
....................  case STATE_04: 
....................        if (num_veces==0) 
2A48:  MOVLB  1
2A4A:  MOVF   x53,F
2A4C:  BNZ   2AB6
....................        { 
....................         lcd_putc('\f'); 
2A4E:  MOVLW  0C
2A50:  MOVLB  2
2A52:  MOVWF  x5E
2A54:  MOVLB  0
2A56:  CALL   192E
....................         lcd_gotoxy(1,1); 
2A5A:  MOVLW  01
2A5C:  MOVLB  2
2A5E:  MOVWF  x5F
2A60:  MOVWF  x60
2A62:  MOVLB  0
2A64:  CALL   18DC
....................         lcd_putc("   **MENU**  3/3"); 
2A68:  MOVLW  3E
2A6A:  MOVWF  FF6
2A6C:  MOVLW  52
2A6E:  MOVWF  FF7
2A70:  CALL   1992
....................         lcd_gotoxy(1,2); 
2A74:  MOVLW  01
2A76:  MOVLB  2
2A78:  MOVWF  x5F
2A7A:  MOVLW  02
2A7C:  MOVWF  x60
2A7E:  MOVLB  0
2A80:  CALL   18DC
....................         lcd_putc("F1:Borrar"); 
2A84:  MOVLW  50
2A86:  MOVWF  FF6
2A88:  MOVLW  52
2A8A:  MOVWF  FF7
2A8C:  CALL   1992
....................         lcd_gotoxy(1,4); 
2A90:  MOVLW  01
2A92:  MOVLB  2
2A94:  MOVWF  x5F
2A96:  MOVLW  04
2A98:  MOVWF  x60
2A9A:  MOVLB  0
2A9C:  CALL   18DC
....................         lcd_putc("F3:Mas"); 
2AA0:  MOVLW  5A
2AA2:  MOVWF  FF6
2AA4:  MOVLW  52
2AA6:  MOVWF  FF7
2AA8:  CALL   1992
....................         num_veces=1;  tecla='Z'; 
2AAC:  MOVLW  01
2AAE:  MOVLB  1
2AB0:  MOVWF  x53
2AB2:  MOVLW  5A
2AB4:  MOVWF  1F
....................        } 
....................        estado_siguiente_maquina_lcd=STATE_04; 
2AB6:  MOVLW  04
2AB8:  MOVWF  x51
....................        if (tecla=='A') 
2ABA:  MOVF   1F,W
2ABC:  SUBLW  41
2ABE:  BNZ   2ACA
....................        { 
....................         estado_siguiente_maquina_lcd= STATE_04_A; 
2AC0:  MOVLW  10
2AC2:  MOVWF  x51
....................         tecla='Z'; 
2AC4:  MOVLW  5A
2AC6:  MOVWF  1F
....................         num_veces=0; 
2AC8:  CLRF   x53
....................        } 
....................        if (tecla=='C') 
2ACA:  MOVF   1F,W
2ACC:  SUBLW  43
2ACE:  BNZ   2ADA
....................        { 
....................         estado_siguiente_maquina_lcd=STATE_02; 
2AD0:  MOVLW  02
2AD2:  MOVWF  x51
....................         tecla='Z'; 
2AD4:  MOVLW  5A
2AD6:  MOVWF  1F
....................         num_veces=0; 
2AD8:  CLRF   x53
....................        } 
....................  break; 
2ADA:  GOTO   5078
.................... case STATE_02_BCD_0: 
....................        if (num_veces==0) 
2ADE:  MOVLB  1
2AE0:  MOVF   x53,F
2AE2:  BNZ   2B90
....................        { 
....................         lcd_putc('\f'); 
2AE4:  MOVLW  0C
2AE6:  MOVLB  2
2AE8:  MOVWF  x5E
2AEA:  MOVLB  0
2AEC:  CALL   192E
....................         lcd_gotoxy(1,1); 
2AF0:  MOVLW  01
2AF2:  MOVLB  2
2AF4:  MOVWF  x5F
2AF6:  MOVWF  x60
2AF8:  MOVLB  0
2AFA:  CALL   18DC
....................         lcd_putc(" *CONFIGURA* 1/3"); 
2AFE:  MOVLW  62
2B00:  MOVWF  FF6
2B02:  MOVLW  52
2B04:  MOVWF  FF7
2B06:  CALL   1992
....................         lcd_gotoxy(1,2); 
2B0A:  MOVLW  01
2B0C:  MOVLB  2
2B0E:  MOVWF  x5F
2B10:  MOVLW  02
2B12:  MOVWF  x60
2B14:  MOVLB  0
2B16:  CALL   18DC
....................         lcd_putc("Sector:?"); 
2B1A:  MOVLW  74
2B1C:  MOVWF  FF6
2B1E:  MOVLW  52
2B20:  MOVWF  FF7
2B22:  CALL   1992
....................         lcd_gotoxy(1,3); 
2B26:  MOVLW  01
2B28:  MOVLB  2
2B2A:  MOVWF  x5F
2B2C:  MOVLW  03
2B2E:  MOVWF  x60
2B30:  MOVLB  0
2B32:  CALL   18DC
....................         lcd_putc("Si:[F1]"); 
2B36:  MOVLW  7E
2B38:  MOVWF  FF6
2B3A:  MOVLW  52
2B3C:  MOVWF  FF7
2B3E:  CALL   1992
....................         lcd_gotoxy(1,4); 
2B42:  MOVLW  01
2B44:  MOVLB  2
2B46:  MOVWF  x5F
2B48:  MOVLW  04
2B4A:  MOVWF  x60
2B4C:  MOVLB  0
2B4E:  CALL   18DC
....................         lcd_putc("No[F2]"); 
2B52:  MOVLW  86
2B54:  MOVWF  FF6
2B56:  MOVLW  52
2B58:  MOVWF  FF7
2B5A:  CALL   1992
....................         ind1=0; 
2B5E:  MOVLB  1
2B60:  CLRF   x55
....................         num_veces=1;   
2B62:  MOVLW  01
2B64:  MOVWF  x53
....................         tecla='Z'; 
2B66:  MOVLW  5A
2B68:  MOVWF  1F
....................         valor_uno=0; 
2B6A:  MOVLB  0
2B6C:  CLRF   xD5
2B6E:  CLRF   xD4
....................         for(i=0;i<=2;i++) dato1[i]='0'; 
2B70:  CLRF   21
2B72:  MOVF   21,W
2B74:  SUBLW  02
2B76:  BNC   2B8E
2B78:  CLRF   03
2B7A:  MOVF   21,W
2B7C:  ADDLW  38
2B7E:  MOVWF  FE9
2B80:  MOVLW  01
2B82:  ADDWFC 03,W
2B84:  MOVWF  FEA
2B86:  MOVLW  30
2B88:  MOVWF  FEF
2B8A:  INCF   21,F
2B8C:  BRA    2B72
2B8E:  MOVLB  1
....................        } 
....................        if ((tecla!='Z')&&(ind1==0)&&(tecla!='A')&&(tecla!='B')&&(tecla!='C')&&(tecla!='D')&&(tecla!='E')&&(tecla!='F')) 
2B90:  MOVF   1F,W
2B92:  SUBLW  5A
2B94:  BZ    2BF4
2B96:  MOVF   x55,F
2B98:  BNZ   2BF4
2B9A:  MOVF   1F,W
2B9C:  SUBLW  41
2B9E:  BZ    2BF4
2BA0:  MOVF   1F,W
2BA2:  SUBLW  42
2BA4:  BZ    2BF4
2BA6:  MOVF   1F,W
2BA8:  SUBLW  43
2BAA:  BZ    2BF4
2BAC:  MOVF   1F,W
2BAE:  SUBLW  44
2BB0:  BZ    2BF4
2BB2:  MOVF   1F,W
2BB4:  SUBLW  45
2BB6:  BZ    2BF4
2BB8:  MOVF   1F,W
2BBA:  SUBLW  46
2BBC:  BZ    2BF4
....................        { 
....................         dato1[ind1]=tecla; 
2BBE:  CLRF   03
2BC0:  MOVF   x55,W
2BC2:  ADDLW  38
2BC4:  MOVWF  FE9
2BC6:  MOVLW  01
2BC8:  ADDWFC 03,W
2BCA:  MOVWF  FEA
2BCC:  MOVFF  1F,FEF
....................         lcd_gotoxy(8,2); 
2BD0:  MOVLW  08
2BD2:  MOVLB  2
2BD4:  MOVWF  x5F
2BD6:  MOVLW  02
2BD8:  MOVWF  x60
2BDA:  MOVLB  0
2BDC:  CALL   18DC
....................         lcd_putc(tecla); 
2BE0:  MOVFF  1F,25E
2BE4:  CALL   192E
....................         dato1[1]=0; 
2BE8:  MOVLB  1
2BEA:  CLRF   x39
....................         ind1=1; 
2BEC:  MOVLW  01
2BEE:  MOVWF  x55
....................         tecla='Z'; 
2BF0:  MOVLW  5A
2BF2:  MOVWF  1F
....................        } 
....................        estado_siguiente_maquina_lcd=STATE_02_BCD_0; 
2BF4:  MOVLW  06
2BF6:  MOVWF  x51
....................        if (tecla=='A') 
2BF8:  MOVF   1F,W
2BFA:  SUBLW  41
2BFC:  BTFSS  FD8.2
2BFE:  BRA    2CFC
....................        {  
....................         valor_uno=atoi(dato1); 
2C00:  MOVLW  01
2C02:  MOVLB  2
2C04:  MOVWF  x52
2C06:  MOVLW  38
2C08:  MOVWF  x51
2C0A:  MOVLB  0
2C0C:  CALL   1AAA
2C10:  CLRF   03
2C12:  MOVFF  01,D4
2C16:  MOVFF  03,D5
....................         if ((valor_uno>0)&&(valor_uno<=max_nodo)&&(((espera_placa_uno!=max_espera)&&(valor_uno!=2))||((espera_placa_dos!=max_espera)&&valor_uno!=1))) 
2C1A:  MOVF   xD4,F
2C1C:  BNZ   2C22
2C1E:  MOVF   xD5,F
2C20:  BZ    2C70
2C22:  MOVF   xD5,F
2C24:  BNZ   2C70
2C26:  MOVF   xD4,W
2C28:  MOVLB  1
2C2A:  SUBWF  x54,W
2C2C:  BTFSC  FD8.0
2C2E:  BRA    2C34
2C30:  MOVLB  0
2C32:  BRA    2C70
2C34:  MOVF   xA6,W
2C36:  SUBWF  xA4,W
2C38:  BZ    2C48
2C3A:  MOVLB  0
2C3C:  MOVF   xD4,W
2C3E:  SUBLW  02
2C40:  BNZ   2C5E
2C42:  MOVF   xD5,F
2C44:  BNZ   2C5E
2C46:  MOVLB  1
2C48:  MOVF   xA6,W
2C4A:  SUBWF  xA5,W
2C4C:  BTFSS  FD8.2
2C4E:  BRA    2C54
2C50:  MOVLB  0
2C52:  BRA    2C70
2C54:  MOVLB  0
2C56:  DECFSZ xD4,W
2C58:  BRA    2C5E
2C5A:  MOVF   xD5,F
2C5C:  BZ    2C70
....................         { 
....................          placa=valor_uno; 
2C5E:  MOVFF  D4,15E
....................          estado_siguiente_maquina_lcd=STATE_02_BCD_1; 
2C62:  MOVLW  07
2C64:  MOVLB  1
2C66:  MOVWF  x51
....................          num_veces=0;ind1=0; 
2C68:  CLRF   x53
2C6A:  CLRF   x55
....................      
....................         } else 
2C6C:  BRA    2CFC
2C6E:  MOVLB  0
....................         { 
....................          lcd_gotoxy(1,2); 
2C70:  MOVLW  01
2C72:  MOVLB  2
2C74:  MOVWF  x5F
2C76:  MOVLW  02
2C78:  MOVWF  x60
2C7A:  MOVLB  0
2C7C:  CALL   18DC
....................          lcd_putc("        "); 
2C80:  MOVLW  8E
2C82:  MOVWF  FF6
2C84:  MOVLW  52
2C86:  MOVWF  FF7
2C88:  CALL   1992
....................          lcd_gotoxy(1,2); 
2C8C:  MOVLW  01
2C8E:  MOVLB  2
2C90:  MOVWF  x5F
2C92:  MOVLW  02
2C94:  MOVWF  x60
2C96:  MOVLB  0
2C98:  CALL   18DC
....................          lcd_putc("error"); 
2C9C:  MOVLW  98
2C9E:  MOVWF  FF6
2CA0:  MOVLW  52
2CA2:  MOVWF  FF7
2CA4:  CALL   1992
....................          delay_ms(500); 
2CA8:  MOVLW  02
2CAA:  MOVLB  2
2CAC:  MOVWF  x51
2CAE:  MOVLW  FA
2CB0:  MOVWF  x5F
2CB2:  MOVLB  0
2CB4:  CALL   0D34
2CB8:  MOVLB  2
2CBA:  DECFSZ x51,F
2CBC:  BRA    2CAE
....................          lcd_gotoxy(1,2); 
2CBE:  MOVLW  01
2CC0:  MOVWF  x5F
2CC2:  MOVLW  02
2CC4:  MOVWF  x60
2CC6:  MOVLB  0
2CC8:  CALL   18DC
....................          lcd_putc("     "); 
2CCC:  MOVLW  9E
2CCE:  MOVWF  FF6
2CD0:  MOVLW  52
2CD2:  MOVWF  FF7
2CD4:  CALL   1992
....................           
....................          lcd_gotoxy(1,2); 
2CD8:  MOVLW  01
2CDA:  MOVLB  2
2CDC:  MOVWF  x5F
2CDE:  MOVLW  02
2CE0:  MOVWF  x60
2CE2:  MOVLB  0
2CE4:  CALL   18DC
....................          lcd_putc("Sector:?"); 
2CE8:  MOVLW  A4
2CEA:  MOVWF  FF6
2CEC:  MOVLW  52
2CEE:  MOVWF  FF7
2CF0:  CALL   1992
....................         ind1=0;resultado=5; 
2CF4:  MOVLB  1
2CF6:  CLRF   x55
2CF8:  MOVLW  05
2CFA:  MOVWF  x52
....................         }  
....................        }   
....................        if (tecla=='B') 
2CFC:  MOVF   1F,W
2CFE:  SUBLW  42
2D00:  BNZ   2D0C
....................        { 
....................         estado_siguiente_maquina_lcd=STATE_02; 
2D02:  MOVLW  02
2D04:  MOVWF  x51
....................         num_veces=0;  
2D06:  CLRF   x53
....................         tecla='Z'; 
2D08:  MOVLW  5A
2D0A:  MOVWF  1F
....................        } 
....................        tecla='Z'; 
2D0C:  MOVLW  5A
2D0E:  MOVWF  1F
....................  break;      
2D10:  GOTO   5078
....................  case STATE_02_BCD_1: 
....................        if (num_veces==0) 
2D14:  MOVLB  1
2D16:  MOVF   x53,F
2D18:  BNZ   2D9C
....................        { 
....................         lcd_putc('\f'); 
2D1A:  MOVLW  0C
2D1C:  MOVLB  2
2D1E:  MOVWF  x5E
2D20:  MOVLB  0
2D22:  CALL   192E
....................         lcd_gotoxy(1,1); 
2D26:  MOVLW  01
2D28:  MOVLB  2
2D2A:  MOVWF  x5F
2D2C:  MOVWF  x60
2D2E:  MOVLB  0
2D30:  CALL   18DC
....................         lcd_putc('\f'); 
2D34:  MOVLW  0C
2D36:  MOVLB  2
2D38:  MOVWF  x5E
2D3A:  MOVLB  0
2D3C:  CALL   192E
....................         lcd_gotoxy(1,1); 
2D40:  MOVLW  01
2D42:  MOVLB  2
2D44:  MOVWF  x5F
2D46:  MOVWF  x60
2D48:  MOVLB  0
2D4A:  CALL   18DC
....................         lcd_putc(" *CONFIGURA* 2/3"); 
2D4E:  MOVLW  AE
2D50:  MOVWF  FF6
2D52:  MOVLW  52
2D54:  MOVWF  FF7
2D56:  CALL   1992
....................         lcd_gotoxy(1,2); 
2D5A:  MOVLW  01
2D5C:  MOVLB  2
2D5E:  MOVWF  x5F
2D60:  MOVLW  02
2D62:  MOVWF  x60
2D64:  MOVLB  0
2D66:  CALL   18DC
....................         lcd_putc("F1:Lim. Humedad"); 
2D6A:  MOVLW  C0
2D6C:  MOVWF  FF6
2D6E:  MOVLW  52
2D70:  MOVWF  FF7
2D72:  CALL   1992
....................         lcd_gotoxy(1,4); 
2D76:  MOVLW  01
2D78:  MOVLB  2
2D7A:  MOVWF  x5F
2D7C:  MOVLW  04
2D7E:  MOVWF  x60
2D80:  MOVLB  0
2D82:  CALL   18DC
....................         lcd_putc("F2:Lim. Horario "); 
2D86:  MOVLW  D0
2D88:  MOVWF  FF6
2D8A:  MOVLW  52
2D8C:  MOVWF  FF7
2D8E:  CALL   1992
....................         num_veces=1; 
2D92:  MOVLW  01
2D94:  MOVLB  1
2D96:  MOVWF  x53
....................         tecla='Z'; 
2D98:  MOVLW  5A
2D9A:  MOVWF  1F
....................        } 
....................        estado_siguiente_maquina_lcd=STATE_02_BCD_1; 
2D9C:  MOVLW  07
2D9E:  MOVWF  x51
....................        if (tecla=='A') 
2DA0:  MOVF   1F,W
2DA2:  SUBLW  41
2DA4:  BNZ   2DB0
....................        { 
....................         estado_siguiente_maquina_lcd=STATE_02_B1; 
2DA6:  MOVLW  08
2DA8:  MOVWF  x51
....................         num_veces=0;  
2DAA:  CLRF   x53
....................         tecla='Z'; 
2DAC:  MOVLW  5A
2DAE:  MOVWF  1F
....................        } 
....................        if (tecla=='B') 
2DB0:  MOVF   1F,W
2DB2:  SUBLW  42
2DB4:  BNZ   2DC0
....................        { 
....................         estado_siguiente_maquina_lcd=STATE_02_C0; 
2DB6:  MOVLW  0A
2DB8:  MOVWF  x51
....................         num_veces=0;  
2DBA:  CLRF   x53
....................         tecla='Z'; 
2DBC:  MOVLW  5A
2DBE:  MOVWF  1F
....................        } 
....................  break; 
2DC0:  GOTO   5078
....................  case STATE_02_B1: 
....................        if (num_veces==0) 
2DC4:  MOVLB  1
2DC6:  MOVF   x53,F
2DC8:  BTFSS  FD8.2
2DCA:  BRA    2F72
....................        { 
....................         lcd_putc('\f'); 
2DCC:  MOVLW  0C
2DCE:  MOVLB  2
2DD0:  MOVWF  x5E
2DD2:  MOVLB  0
2DD4:  CALL   192E
....................         lcd_gotoxy(1,1); 
2DD8:  MOVLW  01
2DDA:  MOVLB  2
2DDC:  MOVWF  x5F
2DDE:  MOVWF  x60
2DE0:  MOVLB  0
2DE2:  CALL   18DC
....................         printf(lcd_putc,"SECTOR:%d",placa); 
2DE6:  MOVLW  E2
2DE8:  MOVWF  FF6
2DEA:  MOVLW  52
2DEC:  MOVWF  FF7
2DEE:  MOVLW  07
2DF0:  MOVLB  2
2DF2:  MOVWF  x55
2DF4:  MOVLB  0
2DF6:  CALL   19B2
2DFA:  MOVFF  15E,251
2DFE:  MOVLW  18
2E00:  MOVLB  2
2E02:  MOVWF  x52
2E04:  MOVLB  0
2E06:  CALL   1DC6
....................         lcd_gotoxy(1,2); 
2E0A:  MOVLW  01
2E0C:  MOVLB  2
2E0E:  MOVWF  x5F
2E10:  MOVLW  02
2E12:  MOVWF  x60
2E14:  MOVLB  0
2E16:  CALL   18DC
....................         printf(lcd_putc,"Min:%lu", minima[placa]); 
2E1A:  BCF    FD8.0
2E1C:  MOVLB  1
2E1E:  RLCF   x5E,W
2E20:  CLRF   03
2E22:  ADDLW  98
2E24:  MOVWF  FE9
2E26:  MOVLW  00
2E28:  ADDWFC 03,W
2E2A:  MOVWF  FEA
2E2C:  MOVFF  FEC,252
2E30:  MOVF   FED,F
2E32:  MOVFF  FEF,251
2E36:  MOVLW  EC
2E38:  MOVWF  FF6
2E3A:  MOVLW  52
2E3C:  MOVWF  FF7
2E3E:  MOVLW  04
2E40:  MOVLB  2
2E42:  MOVWF  x55
2E44:  MOVLB  0
2E46:  CALL   19B2
2E4A:  MOVLW  10
2E4C:  MOVWF  FE9
2E4E:  MOVFF  252,254
2E52:  MOVFF  251,253
2E56:  CALL   1E86
....................         lcd_gotoxy(7,2); 
2E5A:  MOVLW  07
2E5C:  MOVLB  2
2E5E:  MOVWF  x5F
2E60:  MOVLW  02
2E62:  MOVWF  x60
2E64:  MOVLB  0
2E66:  CALL   18DC
....................         lcd_putc("%"); 
2E6A:  MOVLW  F4
2E6C:  MOVWF  FF6
2E6E:  MOVLW  52
2E70:  MOVWF  FF7
2E72:  CALL   1992
....................         lcd_gotoxy(10,2); 
2E76:  MOVLW  0A
2E78:  MOVLB  2
2E7A:  MOVWF  x5F
2E7C:  MOVLW  02
2E7E:  MOVWF  x60
2E80:  MOVLB  0
2E82:  CALL   18DC
....................         printf(lcd_putc,"Max:%lu",maxima[placa]); 
2E86:  BCF    FD8.0
2E88:  MOVLB  1
2E8A:  RLCF   x5E,W
2E8C:  CLRF   03
2E8E:  ADDLW  9E
2E90:  MOVWF  FE9
2E92:  MOVLW  00
2E94:  ADDWFC 03,W
2E96:  MOVWF  FEA
2E98:  MOVFF  FEC,252
2E9C:  MOVF   FED,F
2E9E:  MOVFF  FEF,251
2EA2:  MOVLW  F6
2EA4:  MOVWF  FF6
2EA6:  MOVLW  52
2EA8:  MOVWF  FF7
2EAA:  MOVLW  04
2EAC:  MOVLB  2
2EAE:  MOVWF  x55
2EB0:  MOVLB  0
2EB2:  CALL   19B2
2EB6:  MOVLW  10
2EB8:  MOVWF  FE9
2EBA:  MOVFF  252,254
2EBE:  MOVFF  251,253
2EC2:  CALL   1E86
....................         lcd_gotoxy(16,2); 
2EC6:  MOVLW  10
2EC8:  MOVLB  2
2ECA:  MOVWF  x5F
2ECC:  MOVLW  02
2ECE:  MOVWF  x60
2ED0:  MOVLB  0
2ED2:  CALL   18DC
....................         lcd_putc("%"); 
2ED6:  MOVLW  FE
2ED8:  MOVWF  FF6
2EDA:  MOVLW  52
2EDC:  MOVWF  FF7
2EDE:  CALL   1992
....................         lcd_gotoxy(1,3); 
2EE2:  MOVLW  01
2EE4:  MOVLB  2
2EE6:  MOVWF  x5F
2EE8:  MOVLW  03
2EEA:  MOVWF  x60
2EEC:  MOVLB  0
2EEE:  CALL   18DC
....................         lcd_putc("Modifica:[F1]"); 
2EF2:  MOVLW  00
2EF4:  MOVWF  FF6
2EF6:  MOVLW  53
2EF8:  MOVWF  FF7
2EFA:  CALL   1992
....................         lcd_gotoxy(1,4); 
2EFE:  MOVLW  01
2F00:  MOVLB  2
2F02:  MOVWF  x5F
2F04:  MOVLW  04
2F06:  MOVWF  x60
2F08:  MOVLB  0
2F0A:  CALL   18DC
....................         lcd_putc("Continua:[F2]"); 
2F0E:  MOVLW  0E
2F10:  MOVWF  FF6
2F12:  MOVLW  53
2F14:  MOVWF  FF7
2F16:  CALL   1992
....................         ind1=0; 
2F1A:  MOVLB  1
2F1C:  CLRF   x55
....................         ind2=0; 
2F1E:  CLRF   x56
....................         num_veces=1;  
2F20:  MOVLW  01
2F22:  MOVWF  x53
....................         tecla='Z'; 
2F24:  MOVLW  5A
2F26:  MOVWF  1F
....................         for(i=0;i<=2;i++) dato1[i]='0';  
2F28:  CLRF   21
2F2A:  MOVF   21,W
2F2C:  SUBLW  02
2F2E:  BNC   2F46
2F30:  CLRF   03
2F32:  MOVF   21,W
2F34:  ADDLW  38
2F36:  MOVWF  FE9
2F38:  MOVLW  01
2F3A:  ADDWFC 03,W
2F3C:  MOVWF  FEA
2F3E:  MOVLW  30
2F40:  MOVWF  FEF
2F42:  INCF   21,F
2F44:  BRA    2F2A
....................         for(i=0;i<=2;i++) dato2[i]='0'; 
2F46:  CLRF   21
2F48:  MOVF   21,W
2F4A:  SUBLW  02
2F4C:  BNC   2F64
2F4E:  CLRF   03
2F50:  MOVF   21,W
2F52:  ADDLW  3B
2F54:  MOVWF  FE9
2F56:  MOVLW  01
2F58:  ADDWFC 03,W
2F5A:  MOVWF  FEA
2F5C:  MOVLW  30
2F5E:  MOVWF  FEF
2F60:  INCF   21,F
2F62:  BRA    2F48
....................         bandera_modifica=0;valor_uno=0;valor_dos=0; 
2F64:  CLRF   x4F
2F66:  MOVLB  0
2F68:  CLRF   xD5
2F6A:  CLRF   xD4
2F6C:  CLRF   xD7
2F6E:  CLRF   xD6
2F70:  MOVLB  1
....................        } 
....................        if (tecla=='A')  
2F72:  MOVF   1F,W
2F74:  SUBLW  41
2F76:  BNZ   2FF4
....................        { 
....................         bandera_modifica=1; 
2F78:  MOVLW  01
2F7A:  MOVWF  x4F
....................         lcd_gotoxy(1,2); 
2F7C:  MOVLB  2
2F7E:  MOVWF  x5F
2F80:  MOVLW  02
2F82:  MOVWF  x60
2F84:  MOVLB  0
2F86:  CALL   18DC
....................         lcd_putc("      "); 
2F8A:  MOVLW  1C
2F8C:  MOVWF  FF6
2F8E:  MOVLW  53
2F90:  MOVWF  FF7
2F92:  CALL   1992
....................         lcd_gotoxy(1,2); 
2F96:  MOVLW  01
2F98:  MOVLB  2
2F9A:  MOVWF  x5F
2F9C:  MOVLW  02
2F9E:  MOVWF  x60
2FA0:  MOVLB  0
2FA2:  CALL   18DC
....................         lcd_putc("Min:??"); 
2FA6:  MOVLW  24
2FA8:  MOVWF  FF6
2FAA:  MOVLW  53
2FAC:  MOVWF  FF7
2FAE:  CALL   1992
....................         lcd_gotoxy(10,2); 
2FB2:  MOVLW  0A
2FB4:  MOVLB  2
2FB6:  MOVWF  x5F
2FB8:  MOVLW  02
2FBA:  MOVWF  x60
2FBC:  MOVLB  0
2FBE:  CALL   18DC
....................         lcd_putc("      "); 
2FC2:  MOVLW  2C
2FC4:  MOVWF  FF6
2FC6:  MOVLW  53
2FC8:  MOVWF  FF7
2FCA:  CALL   1992
....................         lcd_gotoxy(10,2); 
2FCE:  MOVLW  0A
2FD0:  MOVLB  2
2FD2:  MOVWF  x5F
2FD4:  MOVLW  02
2FD6:  MOVWF  x60
2FD8:  MOVLB  0
2FDA:  CALL   18DC
....................         lcd_putc("Max:??"); 
2FDE:  MOVLW  34
2FE0:  MOVWF  FF6
2FE2:  MOVLW  53
2FE4:  MOVWF  FF7
2FE6:  CALL   1992
....................         ind1=0; 
2FEA:  MOVLB  1
2FEC:  CLRF   x55
....................         ind2=0; 
2FEE:  CLRF   x56
....................         tecla='Z'; 
2FF0:  MOVLW  5A
2FF2:  MOVWF  1F
....................        } 
....................        if (bandera_modifica==1) 
2FF4:  DECFSZ x4F,W
2FF6:  BRA    30D0
....................        { 
....................         if ((tecla!='Z')&&(ind1<=1)&&(tecla!='A')&&(tecla!='B')&&(tecla!='C')&&(tecla!='D')&&(tecla!='E')&&(tecla!='F')) 
2FF8:  MOVF   1F,W
2FFA:  SUBLW  5A
2FFC:  BZ    3064
2FFE:  MOVF   x55,W
3000:  SUBLW  01
3002:  BNC   3064
3004:  MOVF   1F,W
3006:  SUBLW  41
3008:  BZ    3064
300A:  MOVF   1F,W
300C:  SUBLW  42
300E:  BZ    3064
3010:  MOVF   1F,W
3012:  SUBLW  43
3014:  BZ    3064
3016:  MOVF   1F,W
3018:  SUBLW  44
301A:  BZ    3064
301C:  MOVF   1F,W
301E:  SUBLW  45
3020:  BZ    3064
3022:  MOVF   1F,W
3024:  SUBLW  46
3026:  BZ    3064
....................         { 
....................          dato1[ind1]=tecla; 
3028:  CLRF   03
302A:  MOVF   x55,W
302C:  ADDLW  38
302E:  MOVWF  FE9
3030:  MOVLW  01
3032:  ADDWFC 03,W
3034:  MOVWF  FEA
3036:  MOVFF  1F,FEF
....................          lcd_gotoxy(5+ind1,2); 
303A:  MOVLW  05
303C:  ADDWF  x55,W
303E:  MOVLB  2
3040:  MOVWF  x51
3042:  MOVWF  x5F
3044:  MOVLW  02
3046:  MOVWF  x60
3048:  MOVLB  0
304A:  CALL   18DC
....................          lcd_putc(tecla); 
304E:  MOVFF  1F,25E
3052:  CALL   192E
....................          ind1++; 
3056:  MOVLB  1
3058:  INCF   x55,F
....................          tecla='Z'; 
305A:  MOVLW  5A
305C:  MOVWF  1F
....................          if (ind1==1)  dato1[2]=0; 
305E:  DECFSZ x55,W
3060:  BRA    3064
3062:  CLRF   x3A
....................         } 
....................         if ((tecla!='Z')&&(ind2<=1)&&(tecla!='A')&&(tecla!='B')&&(tecla!='C')&&(tecla!='D')&&(tecla!='E')&&(tecla!='F')) 
3064:  MOVF   1F,W
3066:  SUBLW  5A
3068:  BZ    30D0
306A:  MOVF   x56,W
306C:  SUBLW  01
306E:  BNC   30D0
3070:  MOVF   1F,W
3072:  SUBLW  41
3074:  BZ    30D0
3076:  MOVF   1F,W
3078:  SUBLW  42
307A:  BZ    30D0
307C:  MOVF   1F,W
307E:  SUBLW  43
3080:  BZ    30D0
3082:  MOVF   1F,W
3084:  SUBLW  44
3086:  BZ    30D0
3088:  MOVF   1F,W
308A:  SUBLW  45
308C:  BZ    30D0
308E:  MOVF   1F,W
3090:  SUBLW  46
3092:  BZ    30D0
....................         { 
....................          dato2[ind2]=tecla; 
3094:  CLRF   03
3096:  MOVF   x56,W
3098:  ADDLW  3B
309A:  MOVWF  FE9
309C:  MOVLW  01
309E:  ADDWFC 03,W
30A0:  MOVWF  FEA
30A2:  MOVFF  1F,FEF
....................          lcd_gotoxy(14+ind2,2); 
30A6:  MOVLW  0E
30A8:  ADDWF  x56,W
30AA:  MOVLB  2
30AC:  MOVWF  x51
30AE:  MOVWF  x5F
30B0:  MOVLW  02
30B2:  MOVWF  x60
30B4:  MOVLB  0
30B6:  CALL   18DC
....................          lcd_putc(tecla); 
30BA:  MOVFF  1F,25E
30BE:  CALL   192E
....................          ind2++; 
30C2:  MOVLB  1
30C4:  INCF   x56,F
....................          tecla='Z'; 
30C6:  MOVLW  5A
30C8:  MOVWF  1F
....................          if (ind2==1)  dato2[2]=0; 
30CA:  DECFSZ x56,W
30CC:  BRA    30D0
30CE:  CLRF   x3D
....................         } 
....................        } 
....................        estado_siguiente_maquina_lcd=STATE_02_B1; 
30D0:  MOVLW  08
30D2:  MOVWF  x51
....................        if (tecla=='B') 
30D4:  MOVF   1F,W
30D6:  SUBLW  42
30D8:  BTFSS  FD8.2
30DA:  BRA    33AA
....................        {  
....................         valor_uno=atoi32(dato1); 
30DC:  MOVLW  01
30DE:  MOVLB  2
30E0:  MOVWF  x54
30E2:  MOVLW  38
30E4:  MOVWF  x53
30E6:  MOVLB  0
30E8:  CALL   0D5C
30EC:  MOVFF  01,D5
30F0:  MOVFF  00,D4
....................         valor_dos=atoi32(dato2); 
30F4:  MOVLW  01
30F6:  MOVLB  2
30F8:  MOVWF  x54
30FA:  MOVLW  3B
30FC:  MOVWF  x53
30FE:  MOVLB  0
3100:  CALL   0D5C
3104:  MOVFF  01,D7
3108:  MOVFF  00,D6
....................         if (((valor_uno>0)&&(valor_uno<=99)&&(valor_dos>=0)&&(valor_uno<=99)&&(valor_uno<valor_dos))||(valor_uno==valor_dos)) 
310C:  MOVF   xD4,F
310E:  BNZ   3114
3110:  MOVF   xD5,F
3112:  BZ    3136
3114:  MOVF   xD5,F
3116:  BNZ   3136
3118:  MOVF   xD4,W
311A:  SUBLW  63
311C:  BNC   3136
311E:  MOVF   xD5,F
3120:  BNZ   3136
3122:  MOVF   xD4,W
3124:  SUBLW  63
3126:  BNC   3136
3128:  MOVF   xD5,W
312A:  SUBWF  xD7,W
312C:  BNC   3136
312E:  BNZ   3146
3130:  MOVF   xD6,W
3132:  SUBWF  xD4,W
3134:  BNC   3146
3136:  MOVF   xD6,W
3138:  SUBWF  xD4,W
313A:  BTFSS  FD8.2
313C:  BRA    32CC
313E:  MOVF   xD7,W
3140:  SUBWF  xD5,W
3142:  BTFSS  FD8.2
3144:  BRA    32CC
....................         { 
....................          estado_siguiente_maquina_lcd=STATE_02_B2; 
3146:  MOVLW  09
3148:  MOVLB  1
314A:  MOVWF  x51
....................          num_veces=0; 
314C:  CLRF   x53
....................          tecla='Z'; 
314E:  MOVLW  5A
3150:  MOVWF  1F
....................          if (bandera_modifica==1) 
3152:  DECFSZ x4F,W
3154:  BRA    32BE
....................          { 
....................           minima_anterior[placa]= minima[placa]; 
3156:  BCF    FD8.0
3158:  RLCF   x5E,W
315A:  CLRF   03
315C:  ADDLW  A4
315E:  MOVWF  01
3160:  MOVLW  00
3162:  ADDWFC 03,F
3164:  MOVLB  2
3166:  MOVFF  03,252
316A:  BCF    FD8.0
316C:  MOVLB  1
316E:  RLCF   x5E,W
3170:  CLRF   03
3172:  ADDLW  98
3174:  MOVWF  FE9
3176:  MOVLW  00
3178:  ADDWFC 03,W
317A:  MOVWF  FEA
317C:  MOVFF  FEC,03
3180:  MOVF   FED,F
3182:  MOVFF  FEF,253
3186:  MOVLB  2
3188:  MOVFF  252,FEA
318C:  MOVFF  01,FE9
3190:  MOVFF  03,FEC
3194:  MOVF   FED,F
3196:  MOVFF  253,FEF
....................           maxima_anterior[placa]= maxima[placa]; 
319A:  BCF    FD8.0
319C:  MOVLB  1
319E:  RLCF   x5E,W
31A0:  CLRF   03
31A2:  ADDLW  AA
31A4:  MOVWF  01
31A6:  MOVLW  00
31A8:  ADDWFC 03,F
31AA:  MOVLB  2
31AC:  MOVFF  03,252
31B0:  BCF    FD8.0
31B2:  MOVLB  1
31B4:  RLCF   x5E,W
31B6:  CLRF   03
31B8:  ADDLW  9E
31BA:  MOVWF  FE9
31BC:  MOVLW  00
31BE:  ADDWFC 03,W
31C0:  MOVWF  FEA
31C2:  MOVFF  FEC,03
31C6:  MOVF   FED,F
31C8:  MOVFF  FEF,253
31CC:  MOVLB  2
31CE:  MOVFF  252,FEA
31D2:  MOVFF  01,FE9
31D6:  MOVFF  03,FEC
31DA:  MOVF   FED,F
31DC:  MOVFF  253,FEF
....................           minima[placa]=valor_uno; 
31E0:  BCF    FD8.0
31E2:  MOVLB  1
31E4:  RLCF   x5E,W
31E6:  CLRF   03
31E8:  ADDLW  98
31EA:  MOVWF  FE9
31EC:  MOVLW  00
31EE:  ADDWFC 03,W
31F0:  MOVWF  FEA
31F2:  MOVFF  D5,FEC
31F6:  MOVF   FED,F
31F8:  MOVFF  D4,FEF
....................           maxima[placa]=valor_dos; 
31FC:  BCF    FD8.0
31FE:  RLCF   x5E,W
3200:  CLRF   03
3202:  ADDLW  9E
3204:  MOVWF  FE9
3206:  MOVLW  00
3208:  ADDWFC 03,W
320A:  MOVWF  FEA
320C:  MOVFF  D7,FEC
3210:  MOVF   FED,F
3212:  MOVFF  D6,FEF
....................           comando_tx=1;//envio limites de humedad 
3216:  CLRF   x4C
3218:  MOVLW  01
321A:  MOVWF  x4B
....................           write_eeprom(minima_placa_1_e, minima[1]); 
321C:  CLRF   FA9
321E:  MOVFF  9A,FA8
3222:  BCF    FA6.6
3224:  BCF    FA6.7
3226:  BSF    FA6.2
3228:  MOVF   FF2,W
322A:  MOVWF  00
322C:  BCF    FF2.7
322E:  MOVLB  F
3230:  MOVLW  55
3232:  MOVWF  FA7
3234:  MOVLW  AA
3236:  MOVWF  FA7
3238:  BSF    FA6.1
323A:  BTFSC  FA6.1
323C:  BRA    323A
323E:  BCF    FA6.2
3240:  MOVF   00,W
3242:  IORWF  FF2,F
....................           write_eeprom(maxima_placa_1_e, maxima[1] ); 
3244:  MOVLW  01
3246:  MOVWF  FA9
3248:  MOVFF  A0,FA8
324C:  BCF    FA6.6
324E:  BCF    FA6.7
3250:  BSF    FA6.2
3252:  MOVFF  FF2,00
3256:  BCF    FF2.7
3258:  MOVLW  55
325A:  MOVWF  FA7
325C:  MOVLW  AA
325E:  MOVWF  FA7
3260:  BSF    FA6.1
3262:  BTFSC  FA6.1
3264:  BRA    3262
3266:  BCF    FA6.2
3268:  MOVF   00,W
326A:  IORWF  FF2,F
....................           write_eeprom(minima_placa_2_e, minima[2]); 
326C:  MOVLW  02
326E:  MOVWF  FA9
3270:  MOVFF  9C,FA8
3274:  BCF    FA6.6
3276:  BCF    FA6.7
3278:  BSF    FA6.2
327A:  MOVFF  FF2,00
327E:  BCF    FF2.7
3280:  MOVLW  55
3282:  MOVWF  FA7
3284:  MOVLW  AA
3286:  MOVWF  FA7
3288:  BSF    FA6.1
328A:  BTFSC  FA6.1
328C:  BRA    328A
328E:  BCF    FA6.2
3290:  MOVF   00,W
3292:  IORWF  FF2,F
....................           write_eeprom(maxima_placa_2_e, maxima[2]); 
3294:  MOVLW  03
3296:  MOVWF  FA9
3298:  MOVFF  A2,FA8
329C:  BCF    FA6.6
329E:  BCF    FA6.7
32A0:  BSF    FA6.2
32A2:  MOVFF  FF2,00
32A6:  BCF    FF2.7
32A8:  MOVLW  55
32AA:  MOVWF  FA7
32AC:  MOVLW  AA
32AE:  MOVWF  FA7
32B0:  BSF    FA6.1
32B2:  BTFSC  FA6.1
32B4:  BRA    32B2
32B6:  BCF    FA6.2
32B8:  MOVF   00,W
32BA:  IORWF  FF2,F
32BC:  MOVLB  1
....................          } 
....................          if ((ind1==1)&&(ind2==1))bandera_modifica=0; 
32BE:  DECFSZ x55,W
32C0:  BRA    32C8
32C2:  DECFSZ x56,W
32C4:  BRA    32C8
32C6:  CLRF   x4F
....................         } 
....................           else 
32C8:  BRA    33AA
32CA:  MOVLB  0
....................           { 
....................             lcd_gotoxy(1,2); 
32CC:  MOVLW  01
32CE:  MOVLB  2
32D0:  MOVWF  x5F
32D2:  MOVLW  02
32D4:  MOVWF  x60
32D6:  MOVLB  0
32D8:  CALL   18DC
....................             lcd_putc("      "); 
32DC:  MOVLW  3C
32DE:  MOVWF  FF6
32E0:  MOVLW  53
32E2:  MOVWF  FF7
32E4:  CALL   1992
....................             lcd_gotoxy(1,2); 
32E8:  MOVLW  01
32EA:  MOVLB  2
32EC:  MOVWF  x5F
32EE:  MOVLW  02
32F0:  MOVWF  x60
32F2:  MOVLB  0
32F4:  CALL   18DC
....................             lcd_putc("error"); 
32F8:  MOVLW  44
32FA:  MOVWF  FF6
32FC:  MOVLW  53
32FE:  MOVWF  FF7
3300:  CALL   1992
....................             delay_ms(500); 
3304:  MOVLW  02
3306:  MOVLB  2
3308:  MOVWF  x51
330A:  MOVLW  FA
330C:  MOVWF  x5F
330E:  MOVLB  0
3310:  CALL   0D34
3314:  MOVLB  2
3316:  DECFSZ x51,F
3318:  BRA    330A
....................             lcd_gotoxy(1,2); 
331A:  MOVLW  01
331C:  MOVWF  x5F
331E:  MOVLW  02
3320:  MOVWF  x60
3322:  MOVLB  0
3324:  CALL   18DC
....................             lcd_putc("Min:??"); 
3328:  MOVLW  4A
332A:  MOVWF  FF6
332C:  MOVLW  53
332E:  MOVWF  FF7
3330:  CALL   1992
....................             lcd_gotoxy(10,2); 
3334:  MOVLW  0A
3336:  MOVLB  2
3338:  MOVWF  x5F
333A:  MOVLW  02
333C:  MOVWF  x60
333E:  MOVLB  0
3340:  CALL   18DC
....................             lcd_putc("      "); 
3344:  MOVLW  52
3346:  MOVWF  FF6
3348:  MOVLW  53
334A:  MOVWF  FF7
334C:  CALL   1992
....................             lcd_gotoxy(10,2); 
3350:  MOVLW  0A
3352:  MOVLB  2
3354:  MOVWF  x5F
3356:  MOVLW  02
3358:  MOVWF  x60
335A:  MOVLB  0
335C:  CALL   18DC
....................             lcd_putc("error"); 
3360:  MOVLW  5A
3362:  MOVWF  FF6
3364:  MOVLW  53
3366:  MOVWF  FF7
3368:  CALL   1992
....................             delay_ms(500); 
336C:  MOVLW  02
336E:  MOVLB  2
3370:  MOVWF  x51
3372:  MOVLW  FA
3374:  MOVWF  x5F
3376:  MOVLB  0
3378:  CALL   0D34
337C:  MOVLB  2
337E:  DECFSZ x51,F
3380:  BRA    3372
....................             lcd_gotoxy(10,2); 
3382:  MOVLW  0A
3384:  MOVWF  x5F
3386:  MOVLW  02
3388:  MOVWF  x60
338A:  MOVLB  0
338C:  CALL   18DC
....................             lcd_putc("Max:??"); 
3390:  MOVLW  60
3392:  MOVWF  FF6
3394:  MOVLW  53
3396:  MOVWF  FF7
3398:  CALL   1992
....................             ind1=0; 
339C:  MOVLB  1
339E:  CLRF   x55
....................             ind2=0; 
33A0:  CLRF   x56
....................             tecla='Z'; 
33A2:  MOVLW  5A
33A4:  MOVWF  1F
....................             bandera_modifica=1; 
33A6:  MOVLW  01
33A8:  MOVWF  x4F
....................          }  
....................        } 
....................        tecla='Z'; 
33AA:  MOVLW  5A
33AC:  MOVWF  1F
....................  break; 
33AE:  GOTO   5078
....................  case STATE_02_B2: 
....................        if (num_veces==0) 
33B2:  MOVLB  1
33B4:  MOVF   x53,F
33B6:  BTFSS  FD8.2
33B8:  BRA    34DE
....................        { 
....................         lcd_putc('\f'); 
33BA:  MOVLW  0C
33BC:  MOVLB  2
33BE:  MOVWF  x5E
33C0:  MOVLB  0
33C2:  CALL   192E
....................         lcd_gotoxy(1,1); 
33C6:  MOVLW  01
33C8:  MOVLB  2
33CA:  MOVWF  x5F
33CC:  MOVWF  x60
33CE:  MOVLB  0
33D0:  CALL   18DC
....................         lcd_putc("LIMITES HUMEDAD"); 
33D4:  MOVLW  68
33D6:  MOVWF  FF6
33D8:  MOVLW  53
33DA:  MOVWF  FF7
33DC:  CALL   1992
....................         lcd_gotoxy(1,2); 
33E0:  MOVLW  01
33E2:  MOVLB  2
33E4:  MOVWF  x5F
33E6:  MOVLW  02
33E8:  MOVWF  x60
33EA:  MOVLB  0
33EC:  CALL   18DC
....................         printf(lcd_putc,"Minima:%lu",minima[placa]); 
33F0:  BCF    FD8.0
33F2:  MOVLB  1
33F4:  RLCF   x5E,W
33F6:  CLRF   03
33F8:  ADDLW  98
33FA:  MOVWF  FE9
33FC:  MOVLW  00
33FE:  ADDWFC 03,W
3400:  MOVWF  FEA
3402:  MOVFF  FEC,252
3406:  MOVF   FED,F
3408:  MOVFF  FEF,251
340C:  MOVLW  78
340E:  MOVWF  FF6
3410:  MOVLW  53
3412:  MOVWF  FF7
3414:  MOVLW  07
3416:  MOVLB  2
3418:  MOVWF  x55
341A:  MOVLB  0
341C:  CALL   19B2
3420:  MOVLW  10
3422:  MOVWF  FE9
3424:  MOVFF  252,254
3428:  MOVFF  251,253
342C:  CALL   1E86
....................         lcd_gotoxy(10,2); 
3430:  MOVLW  0A
3432:  MOVLB  2
3434:  MOVWF  x5F
3436:  MOVLW  02
3438:  MOVWF  x60
343A:  MOVLB  0
343C:  CALL   18DC
....................         lcd_putc('%'); 
3440:  MOVLW  25
3442:  MOVLB  2
3444:  MOVWF  x5E
3446:  MOVLB  0
3448:  CALL   192E
....................         lcd_gotoxy(1,3); 
344C:  MOVLW  01
344E:  MOVLB  2
3450:  MOVWF  x5F
3452:  MOVLW  03
3454:  MOVWF  x60
3456:  MOVLB  0
3458:  CALL   18DC
....................         printf(lcd_putc,"Maxima:%lu",maxima[placa]); 
345C:  BCF    FD8.0
345E:  MOVLB  1
3460:  RLCF   x5E,W
3462:  CLRF   03
3464:  ADDLW  9E
3466:  MOVWF  FE9
3468:  MOVLW  00
346A:  ADDWFC 03,W
346C:  MOVWF  FEA
346E:  MOVFF  FEC,252
3472:  MOVF   FED,F
3474:  MOVFF  FEF,251
3478:  MOVLW  84
347A:  MOVWF  FF6
347C:  MOVLW  53
347E:  MOVWF  FF7
3480:  MOVLW  07
3482:  MOVLB  2
3484:  MOVWF  x55
3486:  MOVLB  0
3488:  CALL   19B2
348C:  MOVLW  10
348E:  MOVWF  FE9
3490:  MOVFF  252,254
3494:  MOVFF  251,253
3498:  CALL   1E86
....................         lcd_gotoxy(10,3); 
349C:  MOVLW  0A
349E:  MOVLB  2
34A0:  MOVWF  x5F
34A2:  MOVLW  03
34A4:  MOVWF  x60
34A6:  MOVLB  0
34A8:  CALL   18DC
....................         lcd_putc('%'); 
34AC:  MOVLW  25
34AE:  MOVLB  2
34B0:  MOVWF  x5E
34B2:  MOVLB  0
34B4:  CALL   192E
....................         lcd_gotoxy(1,4); 
34B8:  MOVLW  01
34BA:  MOVLB  2
34BC:  MOVWF  x5F
34BE:  MOVLW  04
34C0:  MOVWF  x60
34C2:  MOVLB  0
34C4:  CALL   18DC
....................         lcd_putc("Continua:[F1]"); 
34C8:  MOVLW  90
34CA:  MOVWF  FF6
34CC:  MOVLW  53
34CE:  MOVWF  FF7
34D0:  CALL   1992
....................         num_veces=1;  tecla='Z'; 
34D4:  MOVLW  01
34D6:  MOVLB  1
34D8:  MOVWF  x53
34DA:  MOVLW  5A
34DC:  MOVWF  1F
....................        } 
....................        estado_siguiente_maquina_lcd=STATE_02_B2; 
34DE:  MOVLW  09
34E0:  MOVWF  x51
....................        if (tecla=='A') 
34E2:  MOVF   1F,W
34E4:  SUBLW  41
34E6:  BNZ   34F2
....................        { 
....................         estado_siguiente_maquina_lcd=STATE_02; 
34E8:  MOVLW  02
34EA:  MOVWF  x51
....................         tecla='Z'; 
34EC:  MOVLW  5A
34EE:  MOVWF  1F
....................         num_veces=0; 
34F0:  CLRF   x53
....................        } 
....................  break; 
34F2:  GOTO   5078
....................  case STATE_02_C0: 
....................        if (num_veces==0) 
34F6:  MOVLB  1
34F8:  MOVF   x53,F
34FA:  BTFSS  FD8.2
34FC:  BRA    370C
....................        { 
....................         lcd_putc('\f'); 
34FE:  MOVLW  0C
3500:  MOVLB  2
3502:  MOVWF  x5E
3504:  MOVLB  0
3506:  CALL   192E
....................         lcd_gotoxy(1,1); 
350A:  MOVLW  01
350C:  MOVLB  2
350E:  MOVWF  x5F
3510:  MOVWF  x60
3512:  MOVLB  0
3514:  CALL   18DC
....................         printf(lcd_putc,"Sector:%d",placa); 
3518:  MOVLW  9E
351A:  MOVWF  FF6
351C:  MOVLW  53
351E:  MOVWF  FF7
3520:  MOVLW  07
3522:  MOVLB  2
3524:  MOVWF  x55
3526:  MOVLB  0
3528:  CALL   19B2
352C:  MOVFF  15E,251
3530:  MOVLW  18
3532:  MOVLB  2
3534:  MOVWF  x52
3536:  MOVLB  0
3538:  CALL   1DC6
....................         lcd_gotoxy(1,2); 
353C:  MOVLW  01
353E:  MOVLB  2
3540:  MOVWF  x5F
3542:  MOVLW  02
3544:  MOVWF  x60
3546:  MOVLB  0
3548:  CALL   18DC
....................         printf(lcd_putc,"Inicio:%ld:%ld",hora_inicio[placa], minutos_inicio[placa]); 
354C:  BCF    FD8.0
354E:  MOVLB  1
3550:  RLCF   x5E,W
3552:  CLRF   03
3554:  ADDLW  BC
3556:  MOVWF  FE9
3558:  MOVLW  00
355A:  ADDWFC 03,W
355C:  MOVWF  FEA
355E:  MOVFF  FEC,252
3562:  MOVF   FED,F
3564:  MOVFF  FEF,251
3568:  BCF    FD8.0
356A:  RLCF   x5E,W
356C:  CLRF   03
356E:  ADDLW  C8
3570:  MOVWF  FE9
3572:  MOVLW  00
3574:  ADDWFC 03,W
3576:  MOVWF  FEA
3578:  MOVFF  FEC,254
357C:  MOVF   FED,F
357E:  MOVFF  FEF,253
3582:  MOVLW  A8
3584:  MOVWF  FF6
3586:  MOVLW  53
3588:  MOVWF  FF7
358A:  MOVLW  07
358C:  MOVLB  2
358E:  MOVWF  x55
3590:  MOVLB  0
3592:  CALL   19B2
3596:  MOVLW  10
3598:  MOVWF  FE9
359A:  MOVFF  252,256
359E:  MOVFF  251,255
35A2:  CALL   1F42
35A6:  MOVLW  3A
35A8:  MOVLB  2
35AA:  MOVWF  x5E
35AC:  MOVLB  0
35AE:  CALL   192E
35B2:  MOVLW  10
35B4:  MOVWF  FE9
35B6:  MOVFF  254,256
35BA:  MOVFF  253,255
35BE:  CALL   1F42
....................         lcd_gotoxy(1,3); 
35C2:  MOVLW  01
35C4:  MOVLB  2
35C6:  MOVWF  x5F
35C8:  MOVLW  03
35CA:  MOVWF  x60
35CC:  MOVLB  0
35CE:  CALL   18DC
....................         printf(lcd_putc,"   Fin:%ld:%ld",hora_fin[placa],minutos_fin[placa]); 
35D2:  BCF    FD8.0
35D4:  MOVLB  1
35D6:  RLCF   x5E,W
35D8:  CLRF   03
35DA:  ADDLW  C2
35DC:  MOVWF  FE9
35DE:  MOVLW  00
35E0:  ADDWFC 03,W
35E2:  MOVWF  FEA
35E4:  MOVFF  FEC,252
35E8:  MOVF   FED,F
35EA:  MOVFF  FEF,251
35EE:  BCF    FD8.0
35F0:  RLCF   x5E,W
35F2:  CLRF   03
35F4:  ADDLW  CE
35F6:  MOVWF  FE9
35F8:  MOVLW  00
35FA:  ADDWFC 03,W
35FC:  MOVWF  FEA
35FE:  MOVFF  FEC,254
3602:  MOVF   FED,F
3604:  MOVFF  FEF,253
3608:  MOVLW  B8
360A:  MOVWF  FF6
360C:  MOVLW  53
360E:  MOVWF  FF7
3610:  MOVLW  07
3612:  MOVLB  2
3614:  MOVWF  x55
3616:  MOVLB  0
3618:  CALL   19B2
361C:  MOVLW  10
361E:  MOVWF  FE9
3620:  MOVFF  252,256
3624:  MOVFF  251,255
3628:  CALL   1F42
362C:  MOVLW  3A
362E:  MOVLB  2
3630:  MOVWF  x5E
3632:  MOVLB  0
3634:  CALL   192E
3638:  MOVLW  10
363A:  MOVWF  FE9
363C:  MOVFF  254,256
3640:  MOVFF  253,255
3644:  CALL   1F42
....................         lcd_gotoxy(1,4); 
3648:  MOVLW  01
364A:  MOVLB  2
364C:  MOVWF  x5F
364E:  MOVLW  04
3650:  MOVWF  x60
3652:  MOVLB  0
3654:  CALL   18DC
....................         lcd_putc("Si:[F1]"); 
3658:  MOVLW  C8
365A:  MOVWF  FF6
365C:  MOVLW  53
365E:  MOVWF  FF7
3660:  CALL   1992
....................         lcd_gotoxy(9,4); 
3664:  MOVLW  09
3666:  MOVLB  2
3668:  MOVWF  x5F
366A:  MOVLW  04
366C:  MOVWF  x60
366E:  MOVLB  0
3670:  CALL   18DC
....................         lcd_putc("No:[F2]"); 
3674:  MOVLW  D0
3676:  MOVWF  FF6
3678:  MOVLW  53
367A:  MOVWF  FF7
367C:  CALL   1992
....................         ind1=0; 
3680:  MOVLB  1
3682:  CLRF   x55
....................         ind2=0; 
3684:  CLRF   x56
....................         ind3=0; 
3686:  CLRF   x57
....................         ind4=0; 
3688:  CLRF   x58
....................         num_veces=1; 
368A:  MOVLW  01
368C:  MOVWF  x53
....................         tecla='Z'; 
368E:  MOVLW  5A
3690:  MOVWF  1F
....................         for(i=0;i<=2;i++) dato1[i]='0';  
3692:  CLRF   21
3694:  MOVF   21,W
3696:  SUBLW  02
3698:  BNC   36B0
369A:  CLRF   03
369C:  MOVF   21,W
369E:  ADDLW  38
36A0:  MOVWF  FE9
36A2:  MOVLW  01
36A4:  ADDWFC 03,W
36A6:  MOVWF  FEA
36A8:  MOVLW  30
36AA:  MOVWF  FEF
36AC:  INCF   21,F
36AE:  BRA    3694
....................         for(i=0;i<=2;i++) dato2[i]='0'; 
36B0:  CLRF   21
36B2:  MOVF   21,W
36B4:  SUBLW  02
36B6:  BNC   36CE
36B8:  CLRF   03
36BA:  MOVF   21,W
36BC:  ADDLW  3B
36BE:  MOVWF  FE9
36C0:  MOVLW  01
36C2:  ADDWFC 03,W
36C4:  MOVWF  FEA
36C6:  MOVLW  30
36C8:  MOVWF  FEF
36CA:  INCF   21,F
36CC:  BRA    36B2
....................         for(i=0;i<=2;i++) dato3[i]='0'; 
36CE:  CLRF   21
36D0:  MOVF   21,W
36D2:  SUBLW  02
36D4:  BNC   36EC
36D6:  CLRF   03
36D8:  MOVF   21,W
36DA:  ADDLW  3E
36DC:  MOVWF  FE9
36DE:  MOVLW  01
36E0:  ADDWFC 03,W
36E2:  MOVWF  FEA
36E4:  MOVLW  30
36E6:  MOVWF  FEF
36E8:  INCF   21,F
36EA:  BRA    36D0
....................         for(i=0;i<=2;i++) dato4[i]='0'; 
36EC:  CLRF   21
36EE:  MOVF   21,W
36F0:  SUBLW  02
36F2:  BNC   370A
36F4:  CLRF   03
36F6:  MOVF   21,W
36F8:  ADDLW  41
36FA:  MOVWF  FE9
36FC:  MOVLW  01
36FE:  ADDWFC 03,W
3700:  MOVWF  FEA
3702:  MOVLW  30
3704:  MOVWF  FEF
3706:  INCF   21,F
3708:  BRA    36EE
....................         bandera_modifica=0; 
370A:  CLRF   x4F
....................        } 
....................        if (tecla=='B')  
370C:  MOVF   1F,W
370E:  SUBLW  42
3710:  BNZ   3792
....................        { 
....................         bandera_modifica=1; 
3712:  MOVLW  01
3714:  MOVWF  x4F
....................         lcd_gotoxy(1,2); 
3716:  MOVLB  2
3718:  MOVWF  x5F
371A:  MOVLW  02
371C:  MOVWF  x60
371E:  MOVLB  0
3720:  CALL   18DC
....................         lcd_putc("            "); 
3724:  MOVLW  D8
3726:  MOVWF  FF6
3728:  MOVLW  53
372A:  MOVWF  FF7
372C:  CALL   1992
....................         lcd_gotoxy(1,2); 
3730:  MOVLW  01
3732:  MOVLB  2
3734:  MOVWF  x5F
3736:  MOVLW  02
3738:  MOVWF  x60
373A:  MOVLB  0
373C:  CALL   18DC
....................         lcd_putc("Inicio:??:??"); 
3740:  MOVLW  E6
3742:  MOVWF  FF6
3744:  MOVLW  53
3746:  MOVWF  FF7
3748:  CALL   1992
....................         lcd_gotoxy(1,3); 
374C:  MOVLW  01
374E:  MOVLB  2
3750:  MOVWF  x5F
3752:  MOVLW  03
3754:  MOVWF  x60
3756:  MOVLB  0
3758:  CALL   18DC
....................         lcd_putc("            "); 
375C:  MOVLW  F4
375E:  MOVWF  FF6
3760:  MOVLW  53
3762:  MOVWF  FF7
3764:  CALL   1992
....................         lcd_gotoxy(1,3); 
3768:  MOVLW  01
376A:  MOVLB  2
376C:  MOVWF  x5F
376E:  MOVLW  03
3770:  MOVWF  x60
3772:  MOVLB  0
3774:  CALL   18DC
....................         lcd_putc("   Fin:??:??"); 
3778:  MOVLW  02
377A:  MOVWF  FF6
377C:  MOVLW  54
377E:  MOVWF  FF7
3780:  CALL   1992
....................         ind1=0;  
3784:  MOVLB  1
3786:  CLRF   x55
....................         ind2=0;  
3788:  CLRF   x56
....................         ind3=0;  
378A:  CLRF   x57
....................         ind4=0; 
378C:  CLRF   x58
....................         tecla='Z'; 
378E:  MOVLW  5A
3790:  MOVWF  1F
....................        } 
....................        if (bandera_modifica==1) 
3792:  DECFSZ x4F,W
3794:  BRA    3960
....................        { 
....................         //////////////////////////////////////////HORA INICIO/////////////////////////////////////////////////////////////////// 
....................         if ((tecla!='Z')&&(ind1<=1)&&(tecla!='A')&&(tecla!='B')&&(tecla!='C')&&(tecla!='D')&&(tecla!='E')&&(tecla!='F')) 
3796:  MOVF   1F,W
3798:  SUBLW  5A
379A:  BZ    3802
379C:  MOVF   x55,W
379E:  SUBLW  01
37A0:  BNC   3802
37A2:  MOVF   1F,W
37A4:  SUBLW  41
37A6:  BZ    3802
37A8:  MOVF   1F,W
37AA:  SUBLW  42
37AC:  BZ    3802
37AE:  MOVF   1F,W
37B0:  SUBLW  43
37B2:  BZ    3802
37B4:  MOVF   1F,W
37B6:  SUBLW  44
37B8:  BZ    3802
37BA:  MOVF   1F,W
37BC:  SUBLW  45
37BE:  BZ    3802
37C0:  MOVF   1F,W
37C2:  SUBLW  46
37C4:  BZ    3802
....................         { 
....................          dato1[ind1]=tecla; 
37C6:  CLRF   03
37C8:  MOVF   x55,W
37CA:  ADDLW  38
37CC:  MOVWF  FE9
37CE:  MOVLW  01
37D0:  ADDWFC 03,W
37D2:  MOVWF  FEA
37D4:  MOVFF  1F,FEF
....................          lcd_gotoxy(8+ind1,2); 
37D8:  MOVLW  08
37DA:  ADDWF  x55,W
37DC:  MOVLB  2
37DE:  MOVWF  x51
37E0:  MOVWF  x5F
37E2:  MOVLW  02
37E4:  MOVWF  x60
37E6:  MOVLB  0
37E8:  CALL   18DC
....................          lcd_putc(tecla); 
37EC:  MOVFF  1F,25E
37F0:  CALL   192E
....................          ind1++; 
37F4:  MOVLB  1
37F6:  INCF   x55,F
....................          tecla='Z'; 
37F8:  MOVLW  5A
37FA:  MOVWF  1F
....................          if (ind1==1)  dato1[2]=0; 
37FC:  DECFSZ x55,W
37FE:  BRA    3802
3800:  CLRF   x3A
....................         } 
....................         if ((tecla!='Z')&&(ind2<=1)&&(tecla!='A')&&(tecla!='B')&&(tecla!='C')&&(tecla!='D')&&(tecla!='E')&&(tecla!='F')) 
3802:  MOVF   1F,W
3804:  SUBLW  5A
3806:  BZ    386E
3808:  MOVF   x56,W
380A:  SUBLW  01
380C:  BNC   386E
380E:  MOVF   1F,W
3810:  SUBLW  41
3812:  BZ    386E
3814:  MOVF   1F,W
3816:  SUBLW  42
3818:  BZ    386E
381A:  MOVF   1F,W
381C:  SUBLW  43
381E:  BZ    386E
3820:  MOVF   1F,W
3822:  SUBLW  44
3824:  BZ    386E
3826:  MOVF   1F,W
3828:  SUBLW  45
382A:  BZ    386E
382C:  MOVF   1F,W
382E:  SUBLW  46
3830:  BZ    386E
....................         { 
....................          dato2[ind2]=tecla; 
3832:  CLRF   03
3834:  MOVF   x56,W
3836:  ADDLW  3B
3838:  MOVWF  FE9
383A:  MOVLW  01
383C:  ADDWFC 03,W
383E:  MOVWF  FEA
3840:  MOVFF  1F,FEF
....................          lcd_gotoxy(11+ind2,2); 
3844:  MOVLW  0B
3846:  ADDWF  x56,W
3848:  MOVLB  2
384A:  MOVWF  x51
384C:  MOVWF  x5F
384E:  MOVLW  02
3850:  MOVWF  x60
3852:  MOVLB  0
3854:  CALL   18DC
....................          lcd_putc(tecla); 
3858:  MOVFF  1F,25E
385C:  CALL   192E
....................          ind2++; 
3860:  MOVLB  1
3862:  INCF   x56,F
....................          tecla='Z'; 
3864:  MOVLW  5A
3866:  MOVWF  1F
....................          if (ind2==1)  dato2[2]=0; 
3868:  DECFSZ x56,W
386A:  BRA    386E
386C:  CLRF   x3D
....................         } 
....................         if ((ind1==1)&&(ind2==1)&&(ind3==1)&&(ind4==1)&&(ind5==1))bandera_modifica=0; 
386E:  DECFSZ x55,W
3870:  BRA    3884
3872:  DECFSZ x56,W
3874:  BRA    3884
3876:  DECFSZ x57,W
3878:  BRA    3884
387A:  DECFSZ x58,W
387C:  BRA    3884
387E:  DECFSZ x59,W
3880:  BRA    3884
3882:  CLRF   x4F
....................         estado_siguiente_maquina_lcd=STATE_01; 
3884:  MOVLW  01
3886:  MOVWF  x51
....................         ////////////////////////////////////////////////////////////////////////////////////////////////////////////////////////// 
....................         //////////////////////////////////////////HORA FIN//////////////////////////////////////////////////////////////////////// 
....................         if ((tecla!='Z')&&(ind3<=1)&&(tecla!='A')&&(tecla!='B')&&(tecla!='C')&&(tecla!='D')&&(tecla!='E')&&(tecla!='F')) 
3888:  MOVF   1F,W
388A:  SUBLW  5A
388C:  BZ    38F4
388E:  MOVF   x57,W
3890:  SUBLW  01
3892:  BNC   38F4
3894:  MOVF   1F,W
3896:  SUBLW  41
3898:  BZ    38F4
389A:  MOVF   1F,W
389C:  SUBLW  42
389E:  BZ    38F4
38A0:  MOVF   1F,W
38A2:  SUBLW  43
38A4:  BZ    38F4
38A6:  MOVF   1F,W
38A8:  SUBLW  44
38AA:  BZ    38F4
38AC:  MOVF   1F,W
38AE:  SUBLW  45
38B0:  BZ    38F4
38B2:  MOVF   1F,W
38B4:  SUBLW  46
38B6:  BZ    38F4
....................         { 
....................          dato3[ind3]=tecla; 
38B8:  CLRF   03
38BA:  MOVF   x57,W
38BC:  ADDLW  3E
38BE:  MOVWF  FE9
38C0:  MOVLW  01
38C2:  ADDWFC 03,W
38C4:  MOVWF  FEA
38C6:  MOVFF  1F,FEF
....................          lcd_gotoxy(8+ind3,3); 
38CA:  MOVLW  08
38CC:  ADDWF  x57,W
38CE:  MOVLB  2
38D0:  MOVWF  x51
38D2:  MOVWF  x5F
38D4:  MOVLW  03
38D6:  MOVWF  x60
38D8:  MOVLB  0
38DA:  CALL   18DC
....................          lcd_putc(tecla); 
38DE:  MOVFF  1F,25E
38E2:  CALL   192E
....................          ind3++; 
38E6:  MOVLB  1
38E8:  INCF   x57,F
....................          tecla='Z'; 
38EA:  MOVLW  5A
38EC:  MOVWF  1F
....................          if (ind3==1)  dato3[2]=0; 
38EE:  DECFSZ x57,W
38F0:  BRA    38F4
38F2:  CLRF   x40
....................         } 
....................         if ((tecla!='Z')&&(ind4<=1)&&(tecla!='A')&&(tecla!='B')&&(tecla!='C')&&(tecla!='D')&&(tecla!='E')&&(tecla!='F')) 
38F4:  MOVF   1F,W
38F6:  SUBLW  5A
38F8:  BZ    3960
38FA:  MOVF   x58,W
38FC:  SUBLW  01
38FE:  BNC   3960
3900:  MOVF   1F,W
3902:  SUBLW  41
3904:  BZ    3960
3906:  MOVF   1F,W
3908:  SUBLW  42
390A:  BZ    3960
390C:  MOVF   1F,W
390E:  SUBLW  43
3910:  BZ    3960
3912:  MOVF   1F,W
3914:  SUBLW  44
3916:  BZ    3960
3918:  MOVF   1F,W
391A:  SUBLW  45
391C:  BZ    3960
391E:  MOVF   1F,W
3920:  SUBLW  46
3922:  BZ    3960
....................         { 
....................          dato4[ind4]=tecla; 
3924:  CLRF   03
3926:  MOVF   x58,W
3928:  ADDLW  41
392A:  MOVWF  FE9
392C:  MOVLW  01
392E:  ADDWFC 03,W
3930:  MOVWF  FEA
3932:  MOVFF  1F,FEF
....................          lcd_gotoxy(11+ind4,3); 
3936:  MOVLW  0B
3938:  ADDWF  x58,W
393A:  MOVLB  2
393C:  MOVWF  x51
393E:  MOVWF  x5F
3940:  MOVLW  03
3942:  MOVWF  x60
3944:  MOVLB  0
3946:  CALL   18DC
....................          lcd_putc(tecla); 
394A:  MOVFF  1F,25E
394E:  CALL   192E
....................          ind4++; 
3952:  MOVLB  1
3954:  INCF   x58,F
....................          tecla='Z'; 
3956:  MOVLW  5A
3958:  MOVWF  1F
....................          if (ind4==1)  dato4[2]=0; 
395A:  DECFSZ x58,W
395C:  BRA    3960
395E:  CLRF   x43
....................         } 
....................        } 
....................        estado_siguiente_maquina_lcd=STATE_02_C0; 
3960:  MOVLW  0A
3962:  MOVWF  x51
....................        ////////////////////////////////////////////////////////////////////////////////////////////////////////////////////////// 
....................        estado_siguiente_maquina_lcd=STATE_02_C0; 
3964:  MOVWF  x51
....................        if (tecla=='A') 
3966:  MOVF   1F,W
3968:  SUBLW  41
396A:  BTFSS  FD8.2
396C:  BRA    3B52
....................        {  
....................         if (bandera_modifica==1) 
396E:  DECFSZ x4F,W
3970:  BRA    39C4
....................         { 
....................          hora_riego_inicio   =atoi(dato1); 
3972:  MOVLW  01
3974:  MOVLB  2
3976:  MOVWF  x52
3978:  MOVLW  38
397A:  MOVWF  x51
397C:  MOVLB  0
397E:  CALL   1AAA
3982:  MOVFF  01,147
....................          minutos_riego_inicio=atoi(dato2); 
3986:  MOVLW  01
3988:  MOVLB  2
398A:  MOVWF  x52
398C:  MOVLW  3B
398E:  MOVWF  x51
3990:  MOVLB  0
3992:  CALL   1AAA
3996:  MOVFF  01,148
....................          hora_riego_fin      =atoi(dato3); 
399A:  MOVLW  01
399C:  MOVLB  2
399E:  MOVWF  x52
39A0:  MOVLW  3E
39A2:  MOVWF  x51
39A4:  MOVLB  0
39A6:  CALL   1AAA
39AA:  MOVFF  01,149
....................          minutos_riego_fin   =atoi(dato4);  
39AE:  MOVLW  01
39B0:  MOVLB  2
39B2:  MOVWF  x52
39B4:  MOVLW  41
39B6:  MOVWF  x51
39B8:  MOVLB  0
39BA:  CALL   1AAA
39BE:  MOVFF  01,14A
39C2:  MOVLB  1
....................         } 
....................        if ((ind1==1)&&(ind2==1)&&(ind3==1)&&(ind4==1))bandera_modifica=0; 
39C4:  DECFSZ x55,W
39C6:  BRA    39D6
39C8:  DECFSZ x56,W
39CA:  BRA    39D6
39CC:  DECFSZ x57,W
39CE:  BRA    39D6
39D0:  DECFSZ x58,W
39D2:  BRA    39D6
39D4:  CLRF   x4F
....................        if (((hora_riego_inicio>=0)&&(hora_riego_inicio<=23)&&(minutos_riego_inicio>=0)&&(minutos_riego_inicio<=60))&& 
....................                             ( (hora_riego_fin>=0)&&(hora_riego_fin<=23)&&(minutos_riego_fin>=0)&&(minutos_riego_fin<=60)) && 
....................                            ((hora_riego_inicio<hora_riego_fin)||(((hora_riego_inicio==hora_riego_fin)&&(minutos_riego_inicio<=minutos_riego_fin))))) 
39D6:  MOVF   x47,W
39D8:  SUBLW  17
39DA:  BNC   3A70
39DC:  MOVF   x48,W
39DE:  SUBLW  3C
39E0:  BNC   3A70
39E2:  MOVF   x49,W
39E4:  SUBLW  17
39E6:  BNC   3A70
39E8:  MOVF   x4A,W
39EA:  SUBLW  3C
39EC:  BNC   3A70
39EE:  MOVF   x49,W
39F0:  SUBWF  x47,W
39F2:  BNC   3A00
39F4:  MOVF   x49,W
39F6:  SUBWF  x47,W
39F8:  BNZ   3A70
39FA:  MOVF   x48,W
39FC:  SUBWF  x4A,W
39FE:  BNC   3A70
....................        { 
....................         hora_inicio[placa]    = hora_riego_inicio; 
3A00:  BCF    FD8.0
3A02:  RLCF   x5E,W
3A04:  CLRF   03
3A06:  ADDLW  BC
3A08:  MOVWF  FE9
3A0A:  MOVLW  00
3A0C:  ADDWFC 03,W
3A0E:  MOVWF  FEA
3A10:  CLRF   FEC
3A12:  MOVF   FED,F
3A14:  MOVFF  147,FEF
....................         hora_fin[placa]       = hora_riego_fin;  
3A18:  BCF    FD8.0
3A1A:  RLCF   x5E,W
3A1C:  CLRF   03
3A1E:  ADDLW  C2
3A20:  MOVWF  FE9
3A22:  MOVLW  00
3A24:  ADDWFC 03,W
3A26:  MOVWF  FEA
3A28:  CLRF   FEC
3A2A:  MOVF   FED,F
3A2C:  MOVFF  149,FEF
....................         minutos_inicio[placa] = minutos_riego_inicio; 
3A30:  BCF    FD8.0
3A32:  RLCF   x5E,W
3A34:  CLRF   03
3A36:  ADDLW  C8
3A38:  MOVWF  FE9
3A3A:  MOVLW  00
3A3C:  ADDWFC 03,W
3A3E:  MOVWF  FEA
3A40:  CLRF   FEC
3A42:  MOVF   FED,F
3A44:  MOVFF  148,FEF
....................         minutos_fin[placa]    = minutos_riego_fin; 
3A48:  BCF    FD8.0
3A4A:  RLCF   x5E,W
3A4C:  CLRF   03
3A4E:  ADDLW  CE
3A50:  MOVWF  FE9
3A52:  MOVLW  00
3A54:  ADDWFC 03,W
3A56:  MOVWF  FEA
3A58:  CLRF   FEC
3A5A:  MOVF   FED,F
3A5C:  MOVFF  14A,FEF
....................         comando_tx=2; 
3A60:  CLRF   x4C
3A62:  MOVLW  02
3A64:  MOVWF  x4B
....................         estado_siguiente_maquina_lcd=STATE_02; 
3A66:  MOVWF  x51
....................         num_veces=0; 
3A68:  CLRF   x53
....................         tecla='Z'; 
3A6A:  MOVLW  5A
3A6C:  MOVWF  1F
....................        } else 
3A6E:  BRA    3B52
....................           { 
....................            lcd_gotoxy(1,2); 
3A70:  MOVLW  01
3A72:  MOVLB  2
3A74:  MOVWF  x5F
3A76:  MOVLW  02
3A78:  MOVWF  x60
3A7A:  MOVLB  0
3A7C:  CALL   18DC
....................            lcd_putc("      "); 
3A80:  MOVLW  10
3A82:  MOVWF  FF6
3A84:  MOVLW  54
3A86:  MOVWF  FF7
3A88:  CALL   1992
....................            lcd_gotoxy(1,2); 
3A8C:  MOVLW  01
3A8E:  MOVLB  2
3A90:  MOVWF  x5F
3A92:  MOVLW  02
3A94:  MOVWF  x60
3A96:  MOVLB  0
3A98:  CALL   18DC
....................            lcd_putc("error"); 
3A9C:  MOVLW  18
3A9E:  MOVWF  FF6
3AA0:  MOVLW  54
3AA2:  MOVWF  FF7
3AA4:  CALL   1992
....................            delay_ms(500); 
3AA8:  MOVLW  02
3AAA:  MOVLB  2
3AAC:  MOVWF  x51
3AAE:  MOVLW  FA
3AB0:  MOVWF  x5F
3AB2:  MOVLB  0
3AB4:  CALL   0D34
3AB8:  MOVLB  2
3ABA:  DECFSZ x51,F
3ABC:  BRA    3AAE
....................            lcd_gotoxy(1,2); 
3ABE:  MOVLW  01
3AC0:  MOVWF  x5F
3AC2:  MOVLW  02
3AC4:  MOVWF  x60
3AC6:  MOVLB  0
3AC8:  CALL   18DC
....................            lcd_putc("Inicio:??:??"); 
3ACC:  MOVLW  1E
3ACE:  MOVWF  FF6
3AD0:  MOVLW  54
3AD2:  MOVWF  FF7
3AD4:  CALL   1992
....................            lcd_gotoxy(1,3); 
3AD8:  MOVLW  01
3ADA:  MOVLB  2
3ADC:  MOVWF  x5F
3ADE:  MOVLW  03
3AE0:  MOVWF  x60
3AE2:  MOVLB  0
3AE4:  CALL   18DC
....................            lcd_putc("      "); 
3AE8:  MOVLW  2C
3AEA:  MOVWF  FF6
3AEC:  MOVLW  54
3AEE:  MOVWF  FF7
3AF0:  CALL   1992
....................            lcd_gotoxy(1,3); 
3AF4:  MOVLW  01
3AF6:  MOVLB  2
3AF8:  MOVWF  x5F
3AFA:  MOVLW  03
3AFC:  MOVWF  x60
3AFE:  MOVLB  0
3B00:  CALL   18DC
....................            lcd_putc("error"); 
3B04:  MOVLW  34
3B06:  MOVWF  FF6
3B08:  MOVLW  54
3B0A:  MOVWF  FF7
3B0C:  CALL   1992
....................            delay_ms(500); 
3B10:  MOVLW  02
3B12:  MOVLB  2
3B14:  MOVWF  x51
3B16:  MOVLW  FA
3B18:  MOVWF  x5F
3B1A:  MOVLB  0
3B1C:  CALL   0D34
3B20:  MOVLB  2
3B22:  DECFSZ x51,F
3B24:  BRA    3B16
....................            lcd_gotoxy(1,3); 
3B26:  MOVLW  01
3B28:  MOVWF  x5F
3B2A:  MOVLW  03
3B2C:  MOVWF  x60
3B2E:  MOVLB  0
3B30:  CALL   18DC
....................            lcd_putc("   Fin:??:??"); 
3B34:  MOVLW  3A
3B36:  MOVWF  FF6
3B38:  MOVLW  54
3B3A:  MOVWF  FF7
3B3C:  CALL   1992
....................            ind1=0; 
3B40:  MOVLB  1
3B42:  CLRF   x55
....................            ind2=0; 
3B44:  CLRF   x56
....................            ind3=0; 
3B46:  CLRF   x57
....................            ind4=0; 
3B48:  CLRF   x58
....................            tecla='Z'; 
3B4A:  MOVLW  5A
3B4C:  MOVWF  1F
....................            bandera_modifica=1; 
3B4E:  MOVLW  01
3B50:  MOVWF  x4F
....................           }  
....................       } 
....................       tecla='Z'; 
3B52:  MOVLW  5A
3B54:  MOVWF  1F
....................  break; 
3B56:  GOTO   5078
....................  case STATE_03_G: 
....................        if (num_veces==0) 
3B5A:  MOVLB  1
3B5C:  MOVF   x53,F
3B5E:  BNZ   3BE8
....................        { 
....................         lcd_putc('\f'); 
3B60:  MOVLW  0C
3B62:  MOVLB  2
3B64:  MOVWF  x5E
3B66:  MOVLB  0
3B68:  CALL   192E
....................         lcd_gotoxy(1,1); 
3B6C:  MOVLW  01
3B6E:  MOVLB  2
3B70:  MOVWF  x5F
3B72:  MOVWF  x60
3B74:  MOVLB  0
3B76:  CALL   18DC
....................         lcd_putc("*VER ESTADO* 1/2"); 
3B7A:  MOVLW  48
3B7C:  MOVWF  FF6
3B7E:  MOVLW  54
3B80:  MOVWF  FF7
3B82:  CALL   1992
....................         lcd_gotoxy(1,2); 
3B86:  MOVLW  01
3B88:  MOVLB  2
3B8A:  MOVWF  x5F
3B8C:  MOVLW  02
3B8E:  MOVWF  x60
3B90:  MOVLB  0
3B92:  CALL   18DC
....................         lcd_putc("Sector:?"); 
3B96:  MOVLW  5A
3B98:  MOVWF  FF6
3B9A:  MOVLW  54
3B9C:  MOVWF  FF7
3B9E:  CALL   1992
....................         lcd_gotoxy(1,4); 
3BA2:  MOVLW  01
3BA4:  MOVLB  2
3BA6:  MOVWF  x5F
3BA8:  MOVLW  04
3BAA:  MOVWF  x60
3BAC:  MOVLB  0
3BAE:  CALL   18DC
....................         lcd_putc("Ver:[F1]"); 
3BB2:  MOVLW  64
3BB4:  MOVWF  FF6
3BB6:  MOVLW  54
3BB8:  MOVWF  FF7
3BBA:  CALL   1992
....................         ind1=0; 
3BBE:  MOVLB  1
3BC0:  CLRF   x55
....................         num_veces=1;   
3BC2:  MOVLW  01
3BC4:  MOVWF  x53
....................         tecla='Z'; 
3BC6:  MOVLW  5A
3BC8:  MOVWF  1F
....................         for(i=0;i<=2;i++) dato1[i]='0';  
3BCA:  CLRF   21
3BCC:  MOVF   21,W
3BCE:  SUBLW  02
3BD0:  BNC   3BE8
3BD2:  CLRF   03
3BD4:  MOVF   21,W
3BD6:  ADDLW  38
3BD8:  MOVWF  FE9
3BDA:  MOVLW  01
3BDC:  ADDWFC 03,W
3BDE:  MOVWF  FEA
3BE0:  MOVLW  30
3BE2:  MOVWF  FEF
3BE4:  INCF   21,F
3BE6:  BRA    3BCC
....................        } 
....................        if ((tecla!='Z')&&(ind1==0)&&(tecla!='A')&&(tecla!='B')&&(tecla!='C')&&(tecla!='D')&&(tecla!='E')&&(tecla!='F')) 
3BE8:  MOVF   1F,W
3BEA:  SUBLW  5A
3BEC:  BZ    3C4C
3BEE:  MOVF   x55,F
3BF0:  BNZ   3C4C
3BF2:  MOVF   1F,W
3BF4:  SUBLW  41
3BF6:  BZ    3C4C
3BF8:  MOVF   1F,W
3BFA:  SUBLW  42
3BFC:  BZ    3C4C
3BFE:  MOVF   1F,W
3C00:  SUBLW  43
3C02:  BZ    3C4C
3C04:  MOVF   1F,W
3C06:  SUBLW  44
3C08:  BZ    3C4C
3C0A:  MOVF   1F,W
3C0C:  SUBLW  45
3C0E:  BZ    3C4C
3C10:  MOVF   1F,W
3C12:  SUBLW  46
3C14:  BZ    3C4C
....................        { 
....................         dato1[ind1]=tecla; 
3C16:  CLRF   03
3C18:  MOVF   x55,W
3C1A:  ADDLW  38
3C1C:  MOVWF  FE9
3C1E:  MOVLW  01
3C20:  ADDWFC 03,W
3C22:  MOVWF  FEA
3C24:  MOVFF  1F,FEF
....................         lcd_gotoxy(8,2); 
3C28:  MOVLW  08
3C2A:  MOVLB  2
3C2C:  MOVWF  x5F
3C2E:  MOVLW  02
3C30:  MOVWF  x60
3C32:  MOVLB  0
3C34:  CALL   18DC
....................         lcd_putc(tecla); 
3C38:  MOVFF  1F,25E
3C3C:  CALL   192E
....................         dato1[1]=0; 
3C40:  MOVLB  1
3C42:  CLRF   x39
....................         ind1=1; 
3C44:  MOVLW  01
3C46:  MOVWF  x55
....................         tecla='Z'; 
3C48:  MOVLW  5A
3C4A:  MOVWF  1F
....................        } 
....................       estado_siguiente_maquina_lcd=STATE_03_G; 
3C4C:  MOVLW  0B
3C4E:  MOVWF  x51
....................       if (tecla=='A') 
3C50:  MOVF   1F,W
3C52:  SUBLW  41
3C54:  BTFSS  FD8.2
3C56:  BRA    3D3A
....................       {  
....................         resultado=atoi(dato1); 
3C58:  MOVLW  01
3C5A:  MOVLB  2
3C5C:  MOVWF  x52
3C5E:  MOVLW  38
3C60:  MOVWF  x51
3C62:  MOVLB  0
3C64:  CALL   1AAA
3C68:  MOVFF  01,152
....................         lcd_gotoxy(1,1); 
3C6C:  MOVLW  01
3C6E:  MOVLB  2
3C70:  MOVWF  x5F
3C72:  MOVWF  x60
3C74:  MOVLB  0
3C76:  CALL   18DC
....................         if ((resultado>=1)&&(resultado<=max_nodo)&&(((espera_placa_uno!=max_espera)&&(resultado!=2))|| 
....................                                                                         ((espera_placa_dos!=max_espera)&&(resultado!=1)))) 
3C7A:  MOVLB  1
3C7C:  MOVF   x52,W
3C7E:  SUBLW  00
3C80:  BC    3CAE
3C82:  MOVF   x52,W
3C84:  SUBWF  x54,W
3C86:  BNC   3CAE
3C88:  MOVF   xA6,W
3C8A:  SUBWF  xA4,W
3C8C:  BZ    3C94
3C8E:  MOVF   x52,W
3C90:  SUBLW  02
3C92:  BNZ   3CA0
3C94:  MOVF   xA6,W
3C96:  SUBWF  xA5,W
3C98:  BZ    3CAE
3C9A:  DECFSZ x52,W
3C9C:  BRA    3CA0
3C9E:  BRA    3CAE
....................         { 
....................          placa=resultado; 
3CA0:  MOVFF  152,15E
....................          estado_siguiente_maquina_lcd=STATE_03_G0; 
3CA4:  MOVLW  0C
3CA6:  MOVWF  x51
....................          num_veces=0;ind1=0; 
3CA8:  CLRF   x53
3CAA:  CLRF   x55
....................         } else 
3CAC:  BRA    3D3A
....................            { 
....................             lcd_gotoxy(1,2); 
3CAE:  MOVLW  01
3CB0:  MOVLB  2
3CB2:  MOVWF  x5F
3CB4:  MOVLW  02
3CB6:  MOVWF  x60
3CB8:  MOVLB  0
3CBA:  CALL   18DC
....................             lcd_putc("        "); 
3CBE:  MOVLW  6E
3CC0:  MOVWF  FF6
3CC2:  MOVLW  54
3CC4:  MOVWF  FF7
3CC6:  CALL   1992
....................             lcd_gotoxy(1,2); 
3CCA:  MOVLW  01
3CCC:  MOVLB  2
3CCE:  MOVWF  x5F
3CD0:  MOVLW  02
3CD2:  MOVWF  x60
3CD4:  MOVLB  0
3CD6:  CALL   18DC
....................             lcd_putc("error"); 
3CDA:  MOVLW  78
3CDC:  MOVWF  FF6
3CDE:  MOVLW  54
3CE0:  MOVWF  FF7
3CE2:  CALL   1992
....................             delay_ms(500); 
3CE6:  MOVLW  02
3CE8:  MOVLB  2
3CEA:  MOVWF  x51
3CEC:  MOVLW  FA
3CEE:  MOVWF  x5F
3CF0:  MOVLB  0
3CF2:  CALL   0D34
3CF6:  MOVLB  2
3CF8:  DECFSZ x51,F
3CFA:  BRA    3CEC
....................             lcd_gotoxy(1,2); 
3CFC:  MOVLW  01
3CFE:  MOVWF  x5F
3D00:  MOVLW  02
3D02:  MOVWF  x60
3D04:  MOVLB  0
3D06:  CALL   18DC
....................             lcd_putc("     "); 
3D0A:  MOVLW  7E
3D0C:  MOVWF  FF6
3D0E:  MOVLW  54
3D10:  MOVWF  FF7
3D12:  CALL   1992
....................             lcd_gotoxy(1,2); 
3D16:  MOVLW  01
3D18:  MOVLB  2
3D1A:  MOVWF  x5F
3D1C:  MOVLW  02
3D1E:  MOVWF  x60
3D20:  MOVLB  0
3D22:  CALL   18DC
....................             lcd_putc("Sector:?"); 
3D26:  MOVLW  84
3D28:  MOVWF  FF6
3D2A:  MOVLW  54
3D2C:  MOVWF  FF7
3D2E:  CALL   1992
....................             ind1=0; 
3D32:  MOVLB  1
3D34:  CLRF   x55
....................             resultado=5; 
3D36:  MOVLW  05
3D38:  MOVWF  x52
....................            }  
....................       }   
....................       tecla='Z'; 
3D3A:  MOVLW  5A
3D3C:  MOVWF  1F
....................  break; 
3D3E:  GOTO   5078
....................  case STATE_03_G0: 
....................    if (num_veces==0) 
3D42:  MOVLB  1
3D44:  MOVF   x53,F
3D46:  BTFSS  FD8.2
3D48:  BRA    3E76
....................    { 
....................     lcd_putc('\f'); 
3D4A:  MOVLW  0C
3D4C:  MOVLB  2
3D4E:  MOVWF  x5E
3D50:  MOVLB  0
3D52:  CALL   192E
....................     lcd_gotoxy(1,1); 
3D56:  MOVLW  01
3D58:  MOVLB  2
3D5A:  MOVWF  x5F
3D5C:  MOVWF  x60
3D5E:  MOVLB  0
3D60:  CALL   18DC
....................     lcd_putc("*VER ESTADO* 2/2"); 
3D64:  MOVLW  8E
3D66:  MOVWF  FF6
3D68:  MOVLW  54
3D6A:  MOVWF  FF7
3D6C:  CALL   1992
....................     lcd_gotoxy(1,4); 
3D70:  MOVLW  01
3D72:  MOVLB  2
3D74:  MOVWF  x5F
3D76:  MOVLW  04
3D78:  MOVWF  x60
3D7A:  MOVLB  0
3D7C:  CALL   18DC
....................     lcd_putc("Salir:[F1]"); 
3D80:  MOVLW  A0
3D82:  MOVWF  FF6
3D84:  MOVLW  54
3D86:  MOVWF  FF7
3D88:  CALL   1992
....................     lcd_gotoxy(1,2); 
3D8C:  MOVLW  01
3D8E:  MOVLB  2
3D90:  MOVWF  x5F
3D92:  MOVLW  02
3D94:  MOVWF  x60
3D96:  MOVLB  0
3D98:  CALL   18DC
....................     lcd_putc("S1:"); 
3D9C:  MOVLW  AC
3D9E:  MOVWF  FF6
3DA0:  MOVLW  54
3DA2:  MOVWF  FF7
3DA4:  CALL   1992
....................     lcd_gotoxy(9,2); 
3DA8:  MOVLW  09
3DAA:  MOVLB  2
3DAC:  MOVWF  x5F
3DAE:  MOVLW  02
3DB0:  MOVWF  x60
3DB2:  MOVLB  0
3DB4:  CALL   18DC
....................     lcd_putc("S2:"); 
3DB8:  MOVLW  B0
3DBA:  MOVWF  FF6
3DBC:  MOVLW  54
3DBE:  MOVWF  FF7
3DC0:  CALL   1992
....................     lcd_gotoxy(1,3); 
3DC4:  MOVLW  01
3DC6:  MOVLB  2
3DC8:  MOVWF  x5F
3DCA:  MOVLW  03
3DCC:  MOVWF  x60
3DCE:  MOVLB  0
3DD0:  CALL   18DC
....................     lcd_putc("S3:"); 
3DD4:  MOVLW  B4
3DD6:  MOVWF  FF6
3DD8:  MOVLW  54
3DDA:  MOVWF  FF7
3DDC:  CALL   1992
....................     lcd_gotoxy(9,3); 
3DE0:  MOVLW  09
3DE2:  MOVLB  2
3DE4:  MOVWF  x5F
3DE6:  MOVLW  03
3DE8:  MOVWF  x60
3DEA:  MOVLB  0
3DEC:  CALL   18DC
....................     lcd_putc("S4:"); 
3DF0:  MOVLW  B8
3DF2:  MOVWF  FF6
3DF4:  MOVLW  54
3DF6:  MOVWF  FF7
3DF8:  CALL   1992
....................     lcd_gotoxy(6,2); 
3DFC:  MOVLW  06
3DFE:  MOVLB  2
3E00:  MOVWF  x5F
3E02:  MOVLW  02
3E04:  MOVWF  x60
3E06:  MOVLB  0
3E08:  CALL   18DC
....................     lcd_putc("%"); 
3E0C:  MOVLW  BC
3E0E:  MOVWF  FF6
3E10:  MOVLW  54
3E12:  MOVWF  FF7
3E14:  CALL   1992
....................     lcd_gotoxy(14,2); 
3E18:  MOVLW  0E
3E1A:  MOVLB  2
3E1C:  MOVWF  x5F
3E1E:  MOVLW  02
3E20:  MOVWF  x60
3E22:  MOVLB  0
3E24:  CALL   18DC
....................     lcd_putc("%"); 
3E28:  MOVLW  BE
3E2A:  MOVWF  FF6
3E2C:  MOVLW  54
3E2E:  MOVWF  FF7
3E30:  CALL   1992
....................     lcd_gotoxy(6,3); 
3E34:  MOVLW  06
3E36:  MOVLB  2
3E38:  MOVWF  x5F
3E3A:  MOVLW  03
3E3C:  MOVWF  x60
3E3E:  MOVLB  0
3E40:  CALL   18DC
....................     lcd_putc("%"); 
3E44:  MOVLW  C0
3E46:  MOVWF  FF6
3E48:  MOVLW  54
3E4A:  MOVWF  FF7
3E4C:  CALL   1992
....................     lcd_gotoxy(14,3); 
3E50:  MOVLW  0E
3E52:  MOVLB  2
3E54:  MOVWF  x5F
3E56:  MOVLW  03
3E58:  MOVWF  x60
3E5A:  MOVLB  0
3E5C:  CALL   18DC
....................     lcd_putc("%"); 
3E60:  MOVLW  C2
3E62:  MOVWF  FF6
3E64:  MOVLW  54
3E66:  MOVWF  FF7
3E68:  CALL   1992
....................     num_veces=2; 
3E6C:  MOVLW  02
3E6E:  MOVLB  1
3E70:  MOVWF  x53
....................     tecla='Z'; 
3E72:  MOVLW  5A
3E74:  MOVWF  1F
....................    } 
....................    lcd_gotoxy(4,2); 
3E76:  MOVLW  04
3E78:  MOVLB  2
3E7A:  MOVWF  x5F
3E7C:  MOVLW  02
3E7E:  MOVWF  x60
3E80:  MOVLB  0
3E82:  CALL   18DC
....................    lcd_putc("   "); 
3E86:  MOVLW  C4
3E88:  MOVWF  FF6
3E8A:  MOVLW  54
3E8C:  MOVWF  FF7
3E8E:  CALL   1992
....................    lcd_gotoxy(4,2); 
3E92:  MOVLW  04
3E94:  MOVLB  2
3E96:  MOVWF  x5F
3E98:  MOVLW  02
3E9A:  MOVWF  x60
3E9C:  MOVLB  0
3E9E:  CALL   18DC
....................    if (valor_humedad_uno[placa]==0)   lcd_putc("OFF");  
3EA2:  BCF    FD8.0
3EA4:  MOVLB  1
3EA6:  RLCF   x5E,W
3EA8:  CLRF   03
3EAA:  ADDLW  80
3EAC:  MOVWF  FE9
3EAE:  MOVLW  00
3EB0:  ADDWFC 03,W
3EB2:  MOVWF  FEA
3EB4:  MOVFF  FEC,252
3EB8:  MOVF   FED,F
3EBA:  MOVFF  FEF,251
3EBE:  MOVLB  2
3EC0:  MOVF   x51,F
3EC2:  BNZ   3EDA
3EC4:  MOVF   x52,F
3EC6:  BNZ   3EDA
3EC8:  MOVLW  C8
3ECA:  MOVWF  FF6
3ECC:  MOVLW  54
3ECE:  MOVWF  FF7
3ED0:  MOVLB  0
3ED2:  CALL   1992
....................    else  
3ED6:  BRA    3F2E
3ED8:  MOVLB  2
....................       { 
....................        printf(lcd_putc,"%2lu",valor_humedad_uno[placa]-1); 
3EDA:  BCF    FD8.0
3EDC:  MOVLB  1
3EDE:  RLCF   x5E,W
3EE0:  CLRF   03
3EE2:  ADDLW  80
3EE4:  MOVWF  FE9
3EE6:  MOVLW  00
3EE8:  ADDWFC 03,W
3EEA:  MOVWF  FEA
3EEC:  MOVFF  FEC,252
3EF0:  MOVF   FED,F
3EF2:  MOVFF  FEF,251
3EF6:  MOVLW  01
3EF8:  MOVLB  2
3EFA:  SUBWF  x51,F
3EFC:  MOVLW  00
3EFE:  SUBWFB x52,F
3F00:  MOVLW  03
3F02:  MOVWF  FE9
3F04:  MOVFF  252,254
3F08:  MOVFF  251,253
3F0C:  MOVLB  0
3F0E:  CALL   1E86
....................        lcd_gotoxy(6,2); 
3F12:  MOVLW  06
3F14:  MOVLB  2
3F16:  MOVWF  x5F
3F18:  MOVLW  02
3F1A:  MOVWF  x60
3F1C:  MOVLB  0
3F1E:  CALL   18DC
....................        lcd_putc("%"); 
3F22:  MOVLW  CC
3F24:  MOVWF  FF6
3F26:  MOVLW  54
3F28:  MOVWF  FF7
3F2A:  CALL   1992
....................       } 
....................       lcd_gotoxy(12,2); 
3F2E:  MOVLW  0C
3F30:  MOVLB  2
3F32:  MOVWF  x5F
3F34:  MOVLW  02
3F36:  MOVWF  x60
3F38:  MOVLB  0
3F3A:  CALL   18DC
....................       lcd_putc("   "); 
3F3E:  MOVLW  CE
3F40:  MOVWF  FF6
3F42:  MOVLW  54
3F44:  MOVWF  FF7
3F46:  CALL   1992
....................       lcd_gotoxy(12,2); 
3F4A:  MOVLW  0C
3F4C:  MOVLB  2
3F4E:  MOVWF  x5F
3F50:  MOVLW  02
3F52:  MOVWF  x60
3F54:  MOVLB  0
3F56:  CALL   18DC
....................    if (valor_humedad_dos[placa]==0) lcd_putc("OFF");   
3F5A:  BCF    FD8.0
3F5C:  MOVLB  1
3F5E:  RLCF   x5E,W
3F60:  CLRF   03
3F62:  ADDLW  86
3F64:  MOVWF  FE9
3F66:  MOVLW  00
3F68:  ADDWFC 03,W
3F6A:  MOVWF  FEA
3F6C:  MOVFF  FEC,252
3F70:  MOVF   FED,F
3F72:  MOVFF  FEF,251
3F76:  MOVLB  2
3F78:  MOVF   x51,F
3F7A:  BNZ   3F92
3F7C:  MOVF   x52,F
3F7E:  BNZ   3F92
3F80:  MOVLW  D2
3F82:  MOVWF  FF6
3F84:  MOVLW  54
3F86:  MOVWF  FF7
3F88:  MOVLB  0
3F8A:  CALL   1992
....................    else  
3F8E:  BRA    3FE6
3F90:  MOVLB  2
....................       { 
....................         printf(lcd_putc,"%2lu",valor_humedad_dos[placa]-1); 
3F92:  BCF    FD8.0
3F94:  MOVLB  1
3F96:  RLCF   x5E,W
3F98:  CLRF   03
3F9A:  ADDLW  86
3F9C:  MOVWF  FE9
3F9E:  MOVLW  00
3FA0:  ADDWFC 03,W
3FA2:  MOVWF  FEA
3FA4:  MOVFF  FEC,252
3FA8:  MOVF   FED,F
3FAA:  MOVFF  FEF,251
3FAE:  MOVLW  01
3FB0:  MOVLB  2
3FB2:  SUBWF  x51,F
3FB4:  MOVLW  00
3FB6:  SUBWFB x52,F
3FB8:  MOVLW  03
3FBA:  MOVWF  FE9
3FBC:  MOVFF  252,254
3FC0:  MOVFF  251,253
3FC4:  MOVLB  0
3FC6:  CALL   1E86
....................         lcd_gotoxy(14,2); 
3FCA:  MOVLW  0E
3FCC:  MOVLB  2
3FCE:  MOVWF  x5F
3FD0:  MOVLW  02
3FD2:  MOVWF  x60
3FD4:  MOVLB  0
3FD6:  CALL   18DC
....................         lcd_putc("%"); 
3FDA:  MOVLW  D6
3FDC:  MOVWF  FF6
3FDE:  MOVLW  54
3FE0:  MOVWF  FF7
3FE2:  CALL   1992
....................       } 
....................    lcd_gotoxy(4,3); 
3FE6:  MOVLW  04
3FE8:  MOVLB  2
3FEA:  MOVWF  x5F
3FEC:  MOVLW  03
3FEE:  MOVWF  x60
3FF0:  MOVLB  0
3FF2:  CALL   18DC
....................    lcd_putc("   "); 
3FF6:  MOVLW  D8
3FF8:  MOVWF  FF6
3FFA:  MOVLW  54
3FFC:  MOVWF  FF7
3FFE:  CALL   1992
....................    lcd_gotoxy(4,3); 
4002:  MOVLW  04
4004:  MOVLB  2
4006:  MOVWF  x5F
4008:  MOVLW  03
400A:  MOVWF  x60
400C:  MOVLB  0
400E:  CALL   18DC
....................    if (valor_humedad_tres[placa]==0) lcd_putc("OFF"); 
4012:  BCF    FD8.0
4014:  MOVLB  1
4016:  RLCF   x5E,W
4018:  CLRF   03
401A:  ADDLW  8C
401C:  MOVWF  FE9
401E:  MOVLW  00
4020:  ADDWFC 03,W
4022:  MOVWF  FEA
4024:  MOVFF  FEC,252
4028:  MOVF   FED,F
402A:  MOVFF  FEF,251
402E:  MOVLB  2
4030:  MOVF   x51,F
4032:  BNZ   404A
4034:  MOVF   x52,F
4036:  BNZ   404A
4038:  MOVLW  DC
403A:  MOVWF  FF6
403C:  MOVLW  54
403E:  MOVWF  FF7
4040:  MOVLB  0
4042:  CALL   1992
....................    else  
4046:  BRA    409E
4048:  MOVLB  2
....................       { 
....................        printf(lcd_putc,"%2lu",valor_humedad_tres[placa]-1); 
404A:  BCF    FD8.0
404C:  MOVLB  1
404E:  RLCF   x5E,W
4050:  CLRF   03
4052:  ADDLW  8C
4054:  MOVWF  FE9
4056:  MOVLW  00
4058:  ADDWFC 03,W
405A:  MOVWF  FEA
405C:  MOVFF  FEC,252
4060:  MOVF   FED,F
4062:  MOVFF  FEF,251
4066:  MOVLW  01
4068:  MOVLB  2
406A:  SUBWF  x51,F
406C:  MOVLW  00
406E:  SUBWFB x52,F
4070:  MOVLW  03
4072:  MOVWF  FE9
4074:  MOVFF  252,254
4078:  MOVFF  251,253
407C:  MOVLB  0
407E:  CALL   1E86
....................        lcd_gotoxy(6,3); 
4082:  MOVLW  06
4084:  MOVLB  2
4086:  MOVWF  x5F
4088:  MOVLW  03
408A:  MOVWF  x60
408C:  MOVLB  0
408E:  CALL   18DC
....................        lcd_putc("%"); 
4092:  MOVLW  E0
4094:  MOVWF  FF6
4096:  MOVLW  54
4098:  MOVWF  FF7
409A:  CALL   1992
....................       } 
....................    lcd_gotoxy(12,3); 
409E:  MOVLW  0C
40A0:  MOVLB  2
40A2:  MOVWF  x5F
40A4:  MOVLW  03
40A6:  MOVWF  x60
40A8:  MOVLB  0
40AA:  CALL   18DC
....................    lcd_putc("   "); 
40AE:  MOVLW  E2
40B0:  MOVWF  FF6
40B2:  MOVLW  54
40B4:  MOVWF  FF7
40B6:  CALL   1992
....................    lcd_gotoxy(12,3); 
40BA:  MOVLW  0C
40BC:  MOVLB  2
40BE:  MOVWF  x5F
40C0:  MOVLW  03
40C2:  MOVWF  x60
40C4:  MOVLB  0
40C6:  CALL   18DC
....................    if (valor_humedad_cuatro[placa]==0) lcd_putc("OFF"); 
40CA:  BCF    FD8.0
40CC:  MOVLB  1
40CE:  RLCF   x5E,W
40D0:  CLRF   03
40D2:  ADDLW  92
40D4:  MOVWF  FE9
40D6:  MOVLW  00
40D8:  ADDWFC 03,W
40DA:  MOVWF  FEA
40DC:  MOVFF  FEC,252
40E0:  MOVF   FED,F
40E2:  MOVFF  FEF,251
40E6:  MOVLB  2
40E8:  MOVF   x51,F
40EA:  BNZ   4102
40EC:  MOVF   x52,F
40EE:  BNZ   4102
40F0:  MOVLW  E6
40F2:  MOVWF  FF6
40F4:  MOVLW  54
40F6:  MOVWF  FF7
40F8:  MOVLB  0
40FA:  CALL   1992
....................    else 
40FE:  BRA    415C
4100:  MOVLB  2
....................      { 
....................        printf(lcd_putc,"%2lu",valor_humedad_cuatro[placa]-1); 
4102:  BCF    FD8.0
4104:  MOVLB  1
4106:  RLCF   x5E,W
4108:  CLRF   03
410A:  ADDLW  92
410C:  MOVWF  FE9
410E:  MOVLW  00
4110:  ADDWFC 03,W
4112:  MOVWF  FEA
4114:  MOVFF  FEC,252
4118:  MOVF   FED,F
411A:  MOVFF  FEF,251
411E:  MOVLW  01
4120:  MOVLB  2
4122:  SUBWF  x51,F
4124:  MOVLW  00
4126:  SUBWFB x52,F
4128:  MOVLW  03
412A:  MOVWF  FE9
412C:  MOVFF  252,254
4130:  MOVFF  251,253
4134:  MOVLB  0
4136:  CALL   1E86
....................        estado_siguiente_maquina_lcd=STATE_03_G0; 
413A:  MOVLW  0C
413C:  MOVLB  1
413E:  MOVWF  x51
....................        lcd_gotoxy(14,3); 
4140:  MOVLW  0E
4142:  MOVLB  2
4144:  MOVWF  x5F
4146:  MOVLW  03
4148:  MOVWF  x60
414A:  MOVLB  0
414C:  CALL   18DC
....................        lcd_putc("%"); 
4150:  MOVLW  EA
4152:  MOVWF  FF6
4154:  MOVLW  54
4156:  MOVWF  FF7
4158:  CALL   1992
....................       } 
....................    if (tecla=='A') 
415C:  MOVF   1F,W
415E:  SUBLW  41
4160:  BNZ   416E
....................    { 
....................      estado_siguiente_maquina_lcd=STATE_03; 
4162:  MOVLW  03
4164:  MOVLB  1
4166:  MOVWF  x51
....................      tecla='Z'; 
4168:  MOVLW  5A
416A:  MOVWF  1F
....................      num_veces=0; 
416C:  CLRF   x53
....................    }  
....................    comando_tx=3;//solicito valores de humedad 
416E:  MOVLB  1
4170:  CLRF   x4C
4172:  MOVLW  03
4174:  MOVWF  x4B
....................  break; 
4176:  GOTO   5078
....................  case STATE_03_H: 
....................    if (num_veces==0) 
417A:  MOVLB  1
417C:  MOVF   x53,F
417E:  BNZ   4244
....................    { 
....................     lcd_putc('\f'); 
4180:  MOVLW  0C
4182:  MOVLB  2
4184:  MOVWF  x5E
4186:  MOVLB  0
4188:  CALL   192E
....................     lcd_gotoxy(1,1); 
418C:  MOVLW  01
418E:  MOVLB  2
4190:  MOVWF  x5F
4192:  MOVWF  x60
4194:  MOVLB  0
4196:  CALL   18DC
....................     lcd_putc("    *MANUAL* 1/3"); 
419A:  MOVLW  EC
419C:  MOVWF  FF6
419E:  MOVLW  54
41A0:  MOVWF  FF7
41A2:  CALL   1992
....................     lcd_gotoxy(1,2); 
41A6:  MOVLW  01
41A8:  MOVLB  2
41AA:  MOVWF  x5F
41AC:  MOVLW  02
41AE:  MOVWF  x60
41B0:  MOVLB  0
41B2:  CALL   18DC
....................     lcd_putc("Sector:?"); 
41B6:  MOVLW  FE
41B8:  MOVWF  FF6
41BA:  MOVLW  54
41BC:  MOVWF  FF7
41BE:  CALL   1992
....................     lcd_gotoxy(1,3); 
41C2:  MOVLW  01
41C4:  MOVLB  2
41C6:  MOVWF  x5F
41C8:  MOVLW  03
41CA:  MOVWF  x60
41CC:  MOVLB  0
41CE:  CALL   18DC
....................     lcd_putc("Valv(0=OFF):?"); 
41D2:  MOVLW  08
41D4:  MOVWF  FF6
41D6:  MOVLW  55
41D8:  MOVWF  FF7
41DA:  CALL   1992
....................     lcd_gotoxy(1,4); 
41DE:  MOVLW  01
41E0:  MOVLB  2
41E2:  MOVWF  x5F
41E4:  MOVLW  04
41E6:  MOVWF  x60
41E8:  MOVLB  0
41EA:  CALL   18DC
....................     lcd_putc("Continua:[F1]"); 
41EE:  MOVLW  16
41F0:  MOVWF  FF6
41F2:  MOVLW  55
41F4:  MOVWF  FF7
41F6:  CALL   1992
....................     ind1=0;  
41FA:  MOVLB  1
41FC:  CLRF   x55
....................     ind2=0; 
41FE:  CLRF   x56
....................     num_veces=1; 
4200:  MOVLW  01
4202:  MOVWF  x53
....................     tecla='Z'; 
4204:  MOVLW  5A
4206:  MOVWF  1F
....................     for(i=0;i<=2;i++) dato1[i]='0'; 
4208:  CLRF   21
420A:  MOVF   21,W
420C:  SUBLW  02
420E:  BNC   4226
4210:  CLRF   03
4212:  MOVF   21,W
4214:  ADDLW  38
4216:  MOVWF  FE9
4218:  MOVLW  01
421A:  ADDWFC 03,W
421C:  MOVWF  FEA
421E:  MOVLW  30
4220:  MOVWF  FEF
4222:  INCF   21,F
4224:  BRA    420A
....................     for(i=0;i<=2;i++) dato2[i]='0'; 
4226:  CLRF   21
4228:  MOVF   21,W
422A:  SUBLW  02
422C:  BNC   4244
422E:  CLRF   03
4230:  MOVF   21,W
4232:  ADDLW  3B
4234:  MOVWF  FE9
4236:  MOVLW  01
4238:  ADDWFC 03,W
423A:  MOVWF  FEA
423C:  MOVLW  30
423E:  MOVWF  FEF
4240:  INCF   21,F
4242:  BRA    4228
....................    } 
....................    if ((tecla!='Z')&&(ind1==0)&&(tecla!='A')&&(tecla!='B')&&(tecla!='C')&&(tecla!='D')&&(tecla!='E')&&(tecla!='F')) 
4244:  MOVF   1F,W
4246:  SUBLW  5A
4248:  BZ    42A8
424A:  MOVF   x55,F
424C:  BNZ   42A8
424E:  MOVF   1F,W
4250:  SUBLW  41
4252:  BZ    42A8
4254:  MOVF   1F,W
4256:  SUBLW  42
4258:  BZ    42A8
425A:  MOVF   1F,W
425C:  SUBLW  43
425E:  BZ    42A8
4260:  MOVF   1F,W
4262:  SUBLW  44
4264:  BZ    42A8
4266:  MOVF   1F,W
4268:  SUBLW  45
426A:  BZ    42A8
426C:  MOVF   1F,W
426E:  SUBLW  46
4270:  BZ    42A8
....................    { 
....................      dato1[ind1]=tecla; 
4272:  CLRF   03
4274:  MOVF   x55,W
4276:  ADDLW  38
4278:  MOVWF  FE9
427A:  MOVLW  01
427C:  ADDWFC 03,W
427E:  MOVWF  FEA
4280:  MOVFF  1F,FEF
....................      lcd_gotoxy(8,2); 
4284:  MOVLW  08
4286:  MOVLB  2
4288:  MOVWF  x5F
428A:  MOVLW  02
428C:  MOVWF  x60
428E:  MOVLB  0
4290:  CALL   18DC
....................      lcd_putc(tecla); 
4294:  MOVFF  1F,25E
4298:  CALL   192E
....................      dato1[1]=0; 
429C:  MOVLB  1
429E:  CLRF   x39
....................      ind1=1; 
42A0:  MOVLW  01
42A2:  MOVWF  x55
....................      tecla='Z'; 
42A4:  MOVLW  5A
42A6:  MOVWF  1F
....................    } 
....................    if ((tecla!='Z')&&(ind2==0)&&(tecla!='A')&&(tecla!='B')&&(tecla!='C')&&(tecla!='D')&&(tecla!='E')&&(tecla!='F')) 
42A8:  MOVF   1F,W
42AA:  SUBLW  5A
42AC:  BZ    430C
42AE:  MOVF   x56,F
42B0:  BNZ   430C
42B2:  MOVF   1F,W
42B4:  SUBLW  41
42B6:  BZ    430C
42B8:  MOVF   1F,W
42BA:  SUBLW  42
42BC:  BZ    430C
42BE:  MOVF   1F,W
42C0:  SUBLW  43
42C2:  BZ    430C
42C4:  MOVF   1F,W
42C6:  SUBLW  44
42C8:  BZ    430C
42CA:  MOVF   1F,W
42CC:  SUBLW  45
42CE:  BZ    430C
42D0:  MOVF   1F,W
42D2:  SUBLW  46
42D4:  BZ    430C
....................    { 
....................      dato2[ind2]=tecla; 
42D6:  CLRF   03
42D8:  MOVF   x56,W
42DA:  ADDLW  3B
42DC:  MOVWF  FE9
42DE:  MOVLW  01
42E0:  ADDWFC 03,W
42E2:  MOVWF  FEA
42E4:  MOVFF  1F,FEF
....................      lcd_gotoxy(13,3); 
42E8:  MOVLW  0D
42EA:  MOVLB  2
42EC:  MOVWF  x5F
42EE:  MOVLW  03
42F0:  MOVWF  x60
42F2:  MOVLB  0
42F4:  CALL   18DC
....................      lcd_putc(tecla); 
42F8:  MOVFF  1F,25E
42FC:  CALL   192E
....................      dato2[1]=0; 
4300:  MOVLB  1
4302:  CLRF   x3C
....................      ind2=1; 
4304:  MOVLW  01
4306:  MOVWF  x56
....................      tecla='Z'; 
4308:  MOVLW  5A
430A:  MOVWF  1F
....................    } 
....................    estado_siguiente_maquina_lcd=STATE_03_H; 
430C:  MOVLW  0D
430E:  MOVWF  x51
....................    if (tecla=='A') 
4310:  MOVF   1F,W
4312:  SUBLW  41
4314:  BTFSS  FD8.2
4316:  BRA    47DA
....................    {  
....................      tecla='Z'; 
4318:  MOVLW  5A
431A:  MOVWF  1F
....................      resultado1=atoi(dato1); 
431C:  MOVLW  01
431E:  MOVLB  2
4320:  MOVWF  x52
4322:  MOVLW  38
4324:  MOVWF  x51
4326:  MOVLB  0
4328:  CALL   1AAA
432C:  MOVFF  01,15C
....................      resultado2=atoi(dato2); 
4330:  MOVLW  01
4332:  MOVLB  2
4334:  MOVWF  x52
4336:  MOVLW  3B
4338:  MOVWF  x51
433A:  MOVLB  0
433C:  CALL   1AAA
4340:  MOVFF  01,15D
....................      if (((resultado1>=1)&&(resultado1<=max_nodo))&&((resultado2>=0)&&(resultado2<=max_valvula))&& 
....................            (((espera_placa_uno!=max_espera)&&(resultado1!=2))||((espera_placa_dos!=max_espera)&&(resultado1!=1)))) 
4344:  MOVLB  1
4346:  MOVF   x5C,W
4348:  SUBLW  00
434A:  BTFSC  FD8.0
434C:  BRA    46C6
434E:  MOVF   x5C,W
4350:  SUBWF  x54,W
4352:  BTFSS  FD8.0
4354:  BRA    46C6
4356:  MOVF   x5D,W
4358:  SUBWF  x5B,W
435A:  BTFSS  FD8.0
435C:  BRA    46C6
435E:  MOVF   xA6,W
4360:  SUBWF  xA4,W
4362:  BZ    436A
4364:  MOVF   x5C,W
4366:  SUBLW  02
4368:  BNZ   4378
436A:  MOVF   xA6,W
436C:  SUBWF  xA5,W
436E:  BTFSC  FD8.2
4370:  BRA    46C6
4372:  DECFSZ x5C,W
4374:  BRA    4378
4376:  BRA    46C6
....................      { 
....................       manual_anterior[resultado1]=manual[resultado1]; 
4378:  BCF    FD8.0
437A:  RLCF   x5C,W
437C:  CLRF   03
437E:  ADDLW  B6
4380:  MOVWF  01
4382:  MOVLW  00
4384:  ADDWFC 03,F
4386:  MOVLB  2
4388:  MOVFF  03,252
438C:  BCF    FD8.0
438E:  MOVLB  1
4390:  RLCF   x5C,W
4392:  CLRF   03
4394:  ADDLW  B0
4396:  MOVWF  FE9
4398:  MOVLW  00
439A:  ADDWFC 03,W
439C:  MOVWF  FEA
439E:  MOVFF  FEC,03
43A2:  MOVF   FED,F
43A4:  MOVFF  FEF,253
43A8:  MOVLB  2
43AA:  MOVFF  252,FEA
43AE:  MOVFF  01,FE9
43B2:  MOVFF  03,FEC
43B6:  MOVF   FED,F
43B8:  MOVFF  253,FEF
....................       if ((((manual[resultado1]==21)&&(resultado2==2))|| ((manual[resultado1]==22)&&(resultado2==1))|| 
....................        ((manual[resultado1]==22)&&(resultado2==2))|| ((manual[resultado1]==22)&&(resultado2==1))|| 
....................        ((manual[resultado1]==23)&&(resultado2==2))|| ((manual[resultado1]==23)&&(resultado2==1)))||//<----- 
....................        (((manual[resultado1]==11)&&(resultado2==2))|| ((manual[resultado1]==12)&&(resultado2==1))|| 
....................        ((manual[resultado1]==12)&&(resultado2==2))|| ((manual[resultado1]==12)&&(resultado2==1))|| 
....................        ((manual[resultado1]==13)&&(resultado2==2))|| ((manual[resultado1]==13)&&(resultado2==1)))) 
43BC:  BCF    FD8.0
43BE:  MOVLB  1
43C0:  RLCF   x5C,W
43C2:  CLRF   03
43C4:  ADDLW  B0
43C6:  MOVWF  FE9
43C8:  MOVLW  00
43CA:  ADDWFC 03,W
43CC:  MOVWF  FEA
43CE:  MOVFF  FEC,252
43D2:  MOVF   FED,F
43D4:  MOVFF  FEF,251
43D8:  MOVLB  2
43DA:  MOVF   x51,W
43DC:  SUBLW  15
43DE:  BNZ   43F0
43E0:  MOVF   x52,F
43E2:  BNZ   43F0
43E4:  MOVLB  1
43E6:  MOVF   x5D,W
43E8:  SUBLW  02
43EA:  BTFSC  FD8.2
43EC:  BRA    463C
43EE:  MOVLB  2
43F0:  BCF    FD8.0
43F2:  MOVLB  1
43F4:  RLCF   x5C,W
43F6:  CLRF   03
43F8:  ADDLW  B0
43FA:  MOVWF  FE9
43FC:  MOVLW  00
43FE:  ADDWFC 03,W
4400:  MOVWF  FEA
4402:  MOVFF  FEC,252
4406:  MOVF   FED,F
4408:  MOVFF  FEF,251
440C:  MOVLB  2
440E:  MOVF   x51,W
4410:  SUBLW  16
4412:  BNZ   4428
4414:  MOVF   x52,F
4416:  BNZ   4428
4418:  MOVLB  1
441A:  DECFSZ x5D,W
441C:  BRA    4420
441E:  BRA    4424
4420:  MOVLB  2
4422:  BRA    4428
4424:  BRA    463C
4426:  MOVLB  2
4428:  BCF    FD8.0
442A:  MOVLB  1
442C:  RLCF   x5C,W
442E:  CLRF   03
4430:  ADDLW  B0
4432:  MOVWF  FE9
4434:  MOVLW  00
4436:  ADDWFC 03,W
4438:  MOVWF  FEA
443A:  MOVFF  FEC,252
443E:  MOVF   FED,F
4440:  MOVFF  FEF,251
4444:  MOVLB  2
4446:  MOVF   x51,W
4448:  SUBLW  16
444A:  BNZ   445C
444C:  MOVF   x52,F
444E:  BNZ   445C
4450:  MOVLB  1
4452:  MOVF   x5D,W
4454:  SUBLW  02
4456:  BTFSC  FD8.2
4458:  BRA    463C
445A:  MOVLB  2
445C:  BCF    FD8.0
445E:  MOVLB  1
4460:  RLCF   x5C,W
4462:  CLRF   03
4464:  ADDLW  B0
4466:  MOVWF  FE9
4468:  MOVLW  00
446A:  ADDWFC 03,W
446C:  MOVWF  FEA
446E:  MOVFF  FEC,252
4472:  MOVF   FED,F
4474:  MOVFF  FEF,251
4478:  MOVLB  2
447A:  MOVF   x51,W
447C:  SUBLW  16
447E:  BNZ   4494
4480:  MOVF   x52,F
4482:  BNZ   4494
4484:  MOVLB  1
4486:  DECFSZ x5D,W
4488:  BRA    448C
448A:  BRA    4490
448C:  MOVLB  2
448E:  BRA    4494
4490:  BRA    463C
4492:  MOVLB  2
4494:  BCF    FD8.0
4496:  MOVLB  1
4498:  RLCF   x5C,W
449A:  CLRF   03
449C:  ADDLW  B0
449E:  MOVWF  FE9
44A0:  MOVLW  00
44A2:  ADDWFC 03,W
44A4:  MOVWF  FEA
44A6:  MOVFF  FEC,252
44AA:  MOVF   FED,F
44AC:  MOVFF  FEF,251
44B0:  MOVLB  2
44B2:  MOVF   x51,W
44B4:  SUBLW  17
44B6:  BNZ   44C8
44B8:  MOVF   x52,F
44BA:  BNZ   44C8
44BC:  MOVLB  1
44BE:  MOVF   x5D,W
44C0:  SUBLW  02
44C2:  BTFSC  FD8.2
44C4:  BRA    463C
44C6:  MOVLB  2
44C8:  BCF    FD8.0
44CA:  MOVLB  1
44CC:  RLCF   x5C,W
44CE:  CLRF   03
44D0:  ADDLW  B0
44D2:  MOVWF  FE9
44D4:  MOVLW  00
44D6:  ADDWFC 03,W
44D8:  MOVWF  FEA
44DA:  MOVFF  FEC,252
44DE:  MOVF   FED,F
44E0:  MOVFF  FEF,251
44E4:  MOVLB  2
44E6:  MOVF   x51,W
44E8:  SUBLW  17
44EA:  BNZ   4500
44EC:  MOVF   x52,F
44EE:  BNZ   4500
44F0:  MOVLB  1
44F2:  DECFSZ x5D,W
44F4:  BRA    44F8
44F6:  BRA    44FC
44F8:  MOVLB  2
44FA:  BRA    4500
44FC:  BRA    463C
44FE:  MOVLB  2
4500:  BCF    FD8.0
4502:  MOVLB  1
4504:  RLCF   x5C,W
4506:  CLRF   03
4508:  ADDLW  B0
450A:  MOVWF  FE9
450C:  MOVLW  00
450E:  ADDWFC 03,W
4510:  MOVWF  FEA
4512:  MOVFF  FEC,252
4516:  MOVF   FED,F
4518:  MOVFF  FEF,251
451C:  MOVLB  2
451E:  MOVF   x51,W
4520:  SUBLW  0B
4522:  BNZ   4534
4524:  MOVF   x52,F
4526:  BNZ   4534
4528:  MOVLB  1
452A:  MOVF   x5D,W
452C:  SUBLW  02
452E:  BTFSC  FD8.2
4530:  BRA    463C
4532:  MOVLB  2
4534:  BCF    FD8.0
4536:  MOVLB  1
4538:  RLCF   x5C,W
453A:  CLRF   03
453C:  ADDLW  B0
453E:  MOVWF  FE9
4540:  MOVLW  00
4542:  ADDWFC 03,W
4544:  MOVWF  FEA
4546:  MOVFF  FEC,252
454A:  MOVF   FED,F
454C:  MOVFF  FEF,251
4550:  MOVLB  2
4552:  MOVF   x51,W
4554:  SUBLW  0C
4556:  BNZ   456C
4558:  MOVF   x52,F
455A:  BNZ   456C
455C:  MOVLB  1
455E:  DECFSZ x5D,W
4560:  BRA    4564
4562:  BRA    4568
4564:  MOVLB  2
4566:  BRA    456C
4568:  BRA    463C
456A:  MOVLB  2
456C:  BCF    FD8.0
456E:  MOVLB  1
4570:  RLCF   x5C,W
4572:  CLRF   03
4574:  ADDLW  B0
4576:  MOVWF  FE9
4578:  MOVLW  00
457A:  ADDWFC 03,W
457C:  MOVWF  FEA
457E:  MOVFF  FEC,252
4582:  MOVF   FED,F
4584:  MOVFF  FEF,251
4588:  MOVLB  2
458A:  MOVF   x51,W
458C:  SUBLW  0C
458E:  BNZ   459E
4590:  MOVF   x52,F
4592:  BNZ   459E
4594:  MOVLB  1
4596:  MOVF   x5D,W
4598:  SUBLW  02
459A:  BZ    463C
459C:  MOVLB  2
459E:  BCF    FD8.0
45A0:  MOVLB  1
45A2:  RLCF   x5C,W
45A4:  CLRF   03
45A6:  ADDLW  B0
45A8:  MOVWF  FE9
45AA:  MOVLW  00
45AC:  ADDWFC 03,W
45AE:  MOVWF  FEA
45B0:  MOVFF  FEC,252
45B4:  MOVF   FED,F
45B6:  MOVFF  FEF,251
45BA:  MOVLB  2
45BC:  MOVF   x51,W
45BE:  SUBLW  0C
45C0:  BNZ   45D6
45C2:  MOVF   x52,F
45C4:  BNZ   45D6
45C6:  MOVLB  1
45C8:  DECFSZ x5D,W
45CA:  BRA    45CE
45CC:  BRA    45D2
45CE:  MOVLB  2
45D0:  BRA    45D6
45D2:  BRA    463C
45D4:  MOVLB  2
45D6:  BCF    FD8.0
45D8:  MOVLB  1
45DA:  RLCF   x5C,W
45DC:  CLRF   03
45DE:  ADDLW  B0
45E0:  MOVWF  FE9
45E2:  MOVLW  00
45E4:  ADDWFC 03,W
45E6:  MOVWF  FEA
45E8:  MOVFF  FEC,252
45EC:  MOVF   FED,F
45EE:  MOVFF  FEF,251
45F2:  MOVLB  2
45F4:  MOVF   x51,W
45F6:  SUBLW  0D
45F8:  BNZ   4608
45FA:  MOVF   x52,F
45FC:  BNZ   4608
45FE:  MOVLB  1
4600:  MOVF   x5D,W
4602:  SUBLW  02
4604:  BZ    463C
4606:  MOVLB  2
4608:  BCF    FD8.0
460A:  MOVLB  1
460C:  RLCF   x5C,W
460E:  CLRF   03
4610:  ADDLW  B0
4612:  MOVWF  FE9
4614:  MOVLW  00
4616:  ADDWFC 03,W
4618:  MOVWF  FEA
461A:  MOVFF  FEC,252
461E:  MOVF   FED,F
4620:  MOVFF  FEF,251
4624:  MOVLB  2
4626:  MOVF   x51,W
4628:  SUBLW  0D
462A:  BNZ   4678
462C:  MOVF   x52,F
462E:  BNZ   4678
4630:  MOVLB  1
4632:  DECFSZ x5D,W
4634:  BRA    4638
4636:  BRA    463C
4638:  MOVLB  2
463A:  BRA    4678
....................       { 
....................        if (resultado1==1) manual[resultado1]=13; 
463C:  DECFSZ x5C,W
463E:  BRA    4658
4640:  BCF    FD8.0
4642:  RLCF   x5C,W
4644:  CLRF   03
4646:  ADDLW  B0
4648:  MOVWF  FE9
464A:  MOVLW  00
464C:  ADDWFC 03,W
464E:  MOVWF  FEA
4650:  CLRF   FEC
4652:  MOVF   FED,F
4654:  MOVLW  0D
4656:  MOVWF  FEF
....................        if (resultado1==2) manual[resultado1]=23; 
4658:  MOVF   x5C,W
465A:  SUBLW  02
465C:  BNZ   4676
465E:  BCF    FD8.0
4660:  RLCF   x5C,W
4662:  CLRF   03
4664:  ADDLW  B0
4666:  MOVWF  FE9
4668:  MOVLW  00
466A:  ADDWFC 03,W
466C:  MOVWF  FEA
466E:  CLRF   FEC
4670:  MOVF   FED,F
4672:  MOVLW  17
4674:  MOVWF  FEF
....................       } 
....................       else  if (resultado2==0)manual[resultado1]=44; 
4676:  BRA    46B4
4678:  MOVLB  1
467A:  MOVF   x5D,F
467C:  BNZ   4698
467E:  BCF    FD8.0
4680:  RLCF   x5C,W
4682:  CLRF   03
4684:  ADDLW  B0
4686:  MOVWF  FE9
4688:  MOVLW  00
468A:  ADDWFC 03,W
468C:  MOVWF  FEA
468E:  CLRF   FEC
4690:  MOVF   FED,F
4692:  MOVLW  2C
4694:  MOVWF  FEF
....................         else manual[resultado1]=((resultado1*10)+resultado2); 
4696:  BRA    46B4
4698:  BCF    FD8.0
469A:  RLCF   x5C,W
469C:  CLRF   03
469E:  ADDLW  B0
46A0:  MOVWF  FE9
46A2:  MOVLW  00
46A4:  ADDWFC 03,W
46A6:  MOVWF  FEA
46A8:  MOVF   x5C,W
46AA:  MULLW  0A
46AC:  MOVF   FF3,W
46AE:  ADDWF  x5D,W
46B0:  MOVWF  FEF
46B2:  CLRF   FEC
....................       estado_siguiente_maquina_lcd=STATE_03_H0; 
46B4:  MOVLW  0E
46B6:  MOVWF  x51
....................       num_veces=0; 
46B8:  CLRF   x53
....................       ind2=0; 
46BA:  CLRF   x56
....................       ind1=0; 
46BC:  CLRF   x55
....................       comando_tx=4;//envio comando manual 
46BE:  CLRF   x4C
46C0:  MOVLW  04
46C2:  MOVWF  x4B
....................      } else 
46C4:  BRA    47DA
....................         { 
....................          lcd_gotoxy(8,2); 
46C6:  MOVLW  08
46C8:  MOVLB  2
46CA:  MOVWF  x5F
46CC:  MOVLW  02
46CE:  MOVWF  x60
46D0:  MOVLB  0
46D2:  CALL   18DC
....................          lcd_putc("        "); 
46D6:  MOVLW  24
46D8:  MOVWF  FF6
46DA:  MOVLW  55
46DC:  MOVWF  FF7
46DE:  CALL   1992
....................          lcd_gotoxy(8,2); 
46E2:  MOVLW  08
46E4:  MOVLB  2
46E6:  MOVWF  x5F
46E8:  MOVLW  02
46EA:  MOVWF  x60
46EC:  MOVLB  0
46EE:  CALL   18DC
....................          lcd_putc("error"); 
46F2:  MOVLW  2E
46F4:  MOVWF  FF6
46F6:  MOVLW  55
46F8:  MOVWF  FF7
46FA:  CALL   1992
....................          delay_ms(500); 
46FE:  MOVLW  02
4700:  MOVLB  2
4702:  MOVWF  x51
4704:  MOVLW  FA
4706:  MOVWF  x5F
4708:  MOVLB  0
470A:  CALL   0D34
470E:  MOVLB  2
4710:  DECFSZ x51,F
4712:  BRA    4704
....................          lcd_gotoxy(8,2); 
4714:  MOVLW  08
4716:  MOVWF  x5F
4718:  MOVLW  02
471A:  MOVWF  x60
471C:  MOVLB  0
471E:  CALL   18DC
....................          lcd_putc("     "); 
4722:  MOVLW  34
4724:  MOVWF  FF6
4726:  MOVLW  55
4728:  MOVWF  FF7
472A:  CALL   1992
....................          lcd_gotoxy(1,2); 
472E:  MOVLW  01
4730:  MOVLB  2
4732:  MOVWF  x5F
4734:  MOVLW  02
4736:  MOVWF  x60
4738:  MOVLB  0
473A:  CALL   18DC
....................          lcd_putc("Sector:?"); 
473E:  MOVLW  3A
4740:  MOVWF  FF6
4742:  MOVLW  55
4744:  MOVWF  FF7
4746:  CALL   1992
....................          lcd_gotoxy(13,3); 
474A:  MOVLW  0D
474C:  MOVLB  2
474E:  MOVWF  x5F
4750:  MOVLW  03
4752:  MOVWF  x60
4754:  MOVLB  0
4756:  CALL   18DC
....................          lcd_putc("        "); 
475A:  MOVLW  44
475C:  MOVWF  FF6
475E:  MOVLW  55
4760:  MOVWF  FF7
4762:  CALL   1992
....................          lcd_gotoxy(12,3); 
4766:  MOVLW  0C
4768:  MOVLB  2
476A:  MOVWF  x5F
476C:  MOVLW  03
476E:  MOVWF  x60
4770:  MOVLB  0
4772:  CALL   18DC
....................          lcd_putc("error"); 
4776:  MOVLW  4E
4778:  MOVWF  FF6
477A:  MOVLW  55
477C:  MOVWF  FF7
477E:  CALL   1992
....................          delay_ms(500); 
4782:  MOVLW  02
4784:  MOVLB  2
4786:  MOVWF  x51
4788:  MOVLW  FA
478A:  MOVWF  x5F
478C:  MOVLB  0
478E:  CALL   0D34
4792:  MOVLB  2
4794:  DECFSZ x51,F
4796:  BRA    4788
....................          lcd_gotoxy(12,3); 
4798:  MOVLW  0C
479A:  MOVWF  x5F
479C:  MOVLW  03
479E:  MOVWF  x60
47A0:  MOVLB  0
47A2:  CALL   18DC
....................          lcd_putc("     "); 
47A6:  MOVLW  54
47A8:  MOVWF  FF6
47AA:  MOVLW  55
47AC:  MOVWF  FF7
47AE:  CALL   1992
....................          lcd_gotoxy(1,3); 
47B2:  MOVLW  01
47B4:  MOVLB  2
47B6:  MOVWF  x5F
47B8:  MOVLW  03
47BA:  MOVWF  x60
47BC:  MOVLB  0
47BE:  CALL   18DC
....................          lcd_putc("Valv(0=OFF):?"); 
47C2:  MOVLW  5A
47C4:  MOVWF  FF6
47C6:  MOVLW  55
47C8:  MOVWF  FF7
47CA:  CALL   1992
....................          ind1=0; 
47CE:  MOVLB  1
47D0:  CLRF   x55
....................          resultado1=5; 
47D2:  MOVLW  05
47D4:  MOVWF  x5C
....................          ind2=0; 
47D6:  CLRF   x56
....................          resultado2=5; 
47D8:  MOVWF  x5D
....................         }  
....................   } 
....................  break; 
47DA:  GOTO   5078
....................  case STATE_03_H0: 
....................   if (num_veces==0) 
47DE:  MOVLB  1
47E0:  MOVF   x53,F
47E2:  BNZ   4864
....................    { 
....................      lcd_putc('\f'); 
47E4:  MOVLW  0C
47E6:  MOVLB  2
47E8:  MOVWF  x5E
47EA:  MOVLB  0
47EC:  CALL   192E
....................      lcd_gotoxy(1,1); 
47F0:  MOVLW  01
47F2:  MOVLB  2
47F4:  MOVWF  x5F
47F6:  MOVWF  x60
47F8:  MOVLB  0
47FA:  CALL   18DC
....................      lcd_putc(" *MANUAL*  2/3  "); 
47FE:  MOVLW  68
4800:  MOVWF  FF6
4802:  MOVLW  55
4804:  MOVWF  FF7
4806:  CALL   1992
....................      lcd_gotoxy(1,2); 
480A:  MOVLW  01
480C:  MOVLB  2
480E:  MOVWF  x5F
4810:  MOVLW  02
4812:  MOVWF  x60
4814:  MOVLB  0
4816:  CALL   18DC
....................      lcd_putc("Sector:"); 
481A:  MOVLW  7A
481C:  MOVWF  FF6
481E:  MOVLW  55
4820:  MOVWF  FF7
4822:  CALL   1992
....................      lcd_gotoxy(1,3); 
4826:  MOVLW  01
4828:  MOVLB  2
482A:  MOVWF  x5F
482C:  MOVLW  03
482E:  MOVWF  x60
4830:  MOVLB  0
4832:  CALL   18DC
....................      lcd_putc("Valv:"); 
4836:  MOVLW  82
4838:  MOVWF  FF6
483A:  MOVLW  55
483C:  MOVWF  FF7
483E:  CALL   1992
....................      lcd_gotoxy(1,4); 
4842:  MOVLW  01
4844:  MOVLB  2
4846:  MOVWF  x5F
4848:  MOVLW  04
484A:  MOVWF  x60
484C:  MOVLB  0
484E:  CALL   18DC
....................      lcd_putc("Si[F1],No[F2]"); 
4852:  MOVLW  88
4854:  MOVWF  FF6
4856:  MOVLW  55
4858:  MOVWF  FF7
485A:  CALL   1992
....................      num_veces=1; 
485E:  MOVLW  01
4860:  MOVLB  1
4862:  MOVWF  x53
....................    } 
....................    ////////PLACA UNO/////// 
....................    if ((manual[resultado1]==0)&&(resultado1==1)) 
4864:  BCF    FD8.0
4866:  RLCF   x5C,W
4868:  CLRF   03
486A:  ADDLW  B0
486C:  MOVWF  FE9
486E:  MOVLW  00
4870:  ADDWFC 03,W
4872:  MOVWF  FEA
4874:  MOVFF  FEC,252
4878:  MOVF   FED,F
487A:  MOVFF  FEF,251
487E:  MOVLB  2
4880:  MOVF   x51,F
4882:  BNZ   48CE
4884:  MOVF   x52,F
4886:  BNZ   48CE
4888:  MOVLB  1
488A:  DECFSZ x5C,W
488C:  BRA    4890
488E:  BRA    4894
4890:  MOVLB  2
4892:  BRA    48CE
....................    { 
....................     lcd_gotoxy(8,2); 
4894:  MOVLW  08
4896:  MOVLB  2
4898:  MOVWF  x5F
489A:  MOVLW  02
489C:  MOVWF  x60
489E:  MOVLB  0
48A0:  CALL   18DC
....................     lcd_putc("UNO->OFF"); 
48A4:  MOVLW  96
48A6:  MOVWF  FF6
48A8:  MOVLW  55
48AA:  MOVWF  FF7
48AC:  CALL   1992
....................     lcd_gotoxy(6,3); 
48B0:  MOVLW  06
48B2:  MOVLB  2
48B4:  MOVWF  x5F
48B6:  MOVLW  03
48B8:  MOVWF  x60
48BA:  MOVLB  0
48BC:  CALL   18DC
....................     lcd_putc("TODAS->OFF"); 
48C0:  MOVLW  A0
48C2:  MOVWF  FF6
48C4:  MOVLW  55
48C6:  MOVWF  FF7
48C8:  CALL   1992
48CC:  MOVLB  2
....................    } 
....................    if (manual[resultado1]==11) 
48CE:  BCF    FD8.0
48D0:  MOVLB  1
48D2:  RLCF   x5C,W
48D4:  CLRF   03
48D6:  ADDLW  B0
48D8:  MOVWF  FE9
48DA:  MOVLW  00
48DC:  ADDWFC 03,W
48DE:  MOVWF  FEA
48E0:  MOVFF  FEC,252
48E4:  MOVF   FED,F
48E6:  MOVFF  FEF,251
48EA:  MOVLB  2
48EC:  MOVF   x51,W
48EE:  SUBLW  0B
48F0:  BNZ   492E
48F2:  MOVF   x52,F
48F4:  BNZ   492E
....................    { 
....................     lcd_gotoxy(8,2); 
48F6:  MOVLW  08
48F8:  MOVWF  x5F
48FA:  MOVLW  02
48FC:  MOVWF  x60
48FE:  MOVLB  0
4900:  CALL   18DC
....................     lcd_putc("UNO->ON"); 
4904:  MOVLW  AC
4906:  MOVWF  FF6
4908:  MOVLW  55
490A:  MOVWF  FF7
490C:  CALL   1992
....................     lcd_gotoxy(6,3); 
4910:  MOVLW  06
4912:  MOVLB  2
4914:  MOVWF  x5F
4916:  MOVLW  03
4918:  MOVWF  x60
491A:  MOVLB  0
491C:  CALL   18DC
....................     lcd_putc("UNO->ON"); 
4920:  MOVLW  B4
4922:  MOVWF  FF6
4924:  MOVLW  55
4926:  MOVWF  FF7
4928:  CALL   1992
492C:  MOVLB  2
....................    } 
....................    if (manual[resultado1]==12) 
492E:  BCF    FD8.0
4930:  MOVLB  1
4932:  RLCF   x5C,W
4934:  CLRF   03
4936:  ADDLW  B0
4938:  MOVWF  FE9
493A:  MOVLW  00
493C:  ADDWFC 03,W
493E:  MOVWF  FEA
4940:  MOVFF  FEC,252
4944:  MOVF   FED,F
4946:  MOVFF  FEF,251
494A:  MOVLB  2
494C:  MOVF   x51,W
494E:  SUBLW  0C
4950:  BNZ   498E
4952:  MOVF   x52,F
4954:  BNZ   498E
....................    { 
....................     lcd_gotoxy(8,2); 
4956:  MOVLW  08
4958:  MOVWF  x5F
495A:  MOVLW  02
495C:  MOVWF  x60
495E:  MOVLB  0
4960:  CALL   18DC
....................     lcd_putc("UNO->ON"); 
4964:  MOVLW  BC
4966:  MOVWF  FF6
4968:  MOVLW  55
496A:  MOVWF  FF7
496C:  CALL   1992
....................     lcd_gotoxy(6,3); 
4970:  MOVLW  06
4972:  MOVLB  2
4974:  MOVWF  x5F
4976:  MOVLW  03
4978:  MOVWF  x60
497A:  MOVLB  0
497C:  CALL   18DC
....................     lcd_putc("DOS->ON"); 
4980:  MOVLW  C4
4982:  MOVWF  FF6
4984:  MOVLW  55
4986:  MOVWF  FF7
4988:  CALL   1992
498C:  MOVLB  2
....................    } 
....................    if (manual[resultado1]==13) 
498E:  BCF    FD8.0
4990:  MOVLB  1
4992:  RLCF   x5C,W
4994:  CLRF   03
4996:  ADDLW  B0
4998:  MOVWF  FE9
499A:  MOVLW  00
499C:  ADDWFC 03,W
499E:  MOVWF  FEA
49A0:  MOVFF  FEC,252
49A4:  MOVF   FED,F
49A6:  MOVFF  FEF,251
49AA:  MOVLB  2
49AC:  MOVF   x51,W
49AE:  SUBLW  0D
49B0:  BNZ   49EE
49B2:  MOVF   x52,F
49B4:  BNZ   49EE
....................    { 
....................     lcd_gotoxy(8,2); 
49B6:  MOVLW  08
49B8:  MOVWF  x5F
49BA:  MOVLW  02
49BC:  MOVWF  x60
49BE:  MOVLB  0
49C0:  CALL   18DC
....................     lcd_putc("UNO->ON"); 
49C4:  MOVLW  CC
49C6:  MOVWF  FF6
49C8:  MOVLW  55
49CA:  MOVWF  FF7
49CC:  CALL   1992
....................     lcd_gotoxy(6,3); 
49D0:  MOVLW  06
49D2:  MOVLB  2
49D4:  MOVWF  x5F
49D6:  MOVLW  03
49D8:  MOVWF  x60
49DA:  MOVLB  0
49DC:  CALL   18DC
....................     lcd_putc("TODAS->ON"); 
49E0:  MOVLW  D4
49E2:  MOVWF  FF6
49E4:  MOVLW  55
49E6:  MOVWF  FF7
49E8:  CALL   1992
49EC:  MOVLB  2
....................    } 
....................    if (manual[resultado1]==44) 
49EE:  BCF    FD8.0
49F0:  MOVLB  1
49F2:  RLCF   x5C,W
49F4:  CLRF   03
49F6:  ADDLW  B0
49F8:  MOVWF  FE9
49FA:  MOVLW  00
49FC:  ADDWFC 03,W
49FE:  MOVWF  FEA
4A00:  MOVFF  FEC,252
4A04:  MOVF   FED,F
4A06:  MOVFF  FEF,251
4A0A:  MOVLB  2
4A0C:  MOVF   x51,W
4A0E:  SUBLW  2C
4A10:  BNZ   4A4E
4A12:  MOVF   x52,F
4A14:  BNZ   4A4E
....................    { 
....................     lcd_gotoxy(8,2); 
4A16:  MOVLW  08
4A18:  MOVWF  x5F
4A1A:  MOVLW  02
4A1C:  MOVWF  x60
4A1E:  MOVLB  0
4A20:  CALL   18DC
....................     lcd_putc("UNO->OFF"); 
4A24:  MOVLW  DE
4A26:  MOVWF  FF6
4A28:  MOVLW  55
4A2A:  MOVWF  FF7
4A2C:  CALL   1992
....................     lcd_gotoxy(6,3); 
4A30:  MOVLW  06
4A32:  MOVLB  2
4A34:  MOVWF  x5F
4A36:  MOVLW  03
4A38:  MOVWF  x60
4A3A:  MOVLB  0
4A3C:  CALL   18DC
....................     lcd_putc("TODAS->OFF"); 
4A40:  MOVLW  E8
4A42:  MOVWF  FF6
4A44:  MOVLW  55
4A46:  MOVWF  FF7
4A48:  CALL   1992
4A4C:  MOVLB  2
....................    } 
....................    /////////PLACA DOS/////////////// 
....................    if ((manual[resultado1]==0)&&(resultado1==2)) 
4A4E:  BCF    FD8.0
4A50:  MOVLB  1
4A52:  RLCF   x5C,W
4A54:  CLRF   03
4A56:  ADDLW  B0
4A58:  MOVWF  FE9
4A5A:  MOVLW  00
4A5C:  ADDWFC 03,W
4A5E:  MOVWF  FEA
4A60:  MOVFF  FEC,252
4A64:  MOVF   FED,F
4A66:  MOVFF  FEF,251
4A6A:  MOVLB  2
4A6C:  MOVF   x51,F
4A6E:  BNZ   4ABC
4A70:  MOVF   x52,F
4A72:  BNZ   4ABC
4A74:  MOVLB  1
4A76:  MOVF   x5C,W
4A78:  SUBLW  02
4A7A:  BTFSC  FD8.2
4A7C:  BRA    4A82
4A7E:  MOVLB  2
4A80:  BRA    4ABC
....................    { 
....................     lcd_gotoxy(8,2); 
4A82:  MOVLW  08
4A84:  MOVLB  2
4A86:  MOVWF  x5F
4A88:  MOVLW  02
4A8A:  MOVWF  x60
4A8C:  MOVLB  0
4A8E:  CALL   18DC
....................     lcd_putc("DOS->OFF"); 
4A92:  MOVLW  F4
4A94:  MOVWF  FF6
4A96:  MOVLW  55
4A98:  MOVWF  FF7
4A9A:  CALL   1992
....................     lcd_gotoxy(6,3); 
4A9E:  MOVLW  06
4AA0:  MOVLB  2
4AA2:  MOVWF  x5F
4AA4:  MOVLW  03
4AA6:  MOVWF  x60
4AA8:  MOVLB  0
4AAA:  CALL   18DC
....................     lcd_putc("TODAS->OFF"); 
4AAE:  MOVLW  FE
4AB0:  MOVWF  FF6
4AB2:  MOVLW  55
4AB4:  MOVWF  FF7
4AB6:  CALL   1992
4ABA:  MOVLB  2
....................    } 
....................    if (manual[resultado1]==21) 
4ABC:  BCF    FD8.0
4ABE:  MOVLB  1
4AC0:  RLCF   x5C,W
4AC2:  CLRF   03
4AC4:  ADDLW  B0
4AC6:  MOVWF  FE9
4AC8:  MOVLW  00
4ACA:  ADDWFC 03,W
4ACC:  MOVWF  FEA
4ACE:  MOVFF  FEC,252
4AD2:  MOVF   FED,F
4AD4:  MOVFF  FEF,251
4AD8:  MOVLB  2
4ADA:  MOVF   x51,W
4ADC:  SUBLW  15
4ADE:  BNZ   4B1C
4AE0:  MOVF   x52,F
4AE2:  BNZ   4B1C
....................    { 
....................     lcd_gotoxy(8,2); 
4AE4:  MOVLW  08
4AE6:  MOVWF  x5F
4AE8:  MOVLW  02
4AEA:  MOVWF  x60
4AEC:  MOVLB  0
4AEE:  CALL   18DC
....................     lcd_putc("DOS->ON"); 
4AF2:  MOVLW  0A
4AF4:  MOVWF  FF6
4AF6:  MOVLW  56
4AF8:  MOVWF  FF7
4AFA:  CALL   1992
....................     lcd_gotoxy(6,3); 
4AFE:  MOVLW  06
4B00:  MOVLB  2
4B02:  MOVWF  x5F
4B04:  MOVLW  03
4B06:  MOVWF  x60
4B08:  MOVLB  0
4B0A:  CALL   18DC
....................     lcd_putc("UNO->ON"); 
4B0E:  MOVLW  12
4B10:  MOVWF  FF6
4B12:  MOVLW  56
4B14:  MOVWF  FF7
4B16:  CALL   1992
4B1A:  MOVLB  2
....................    } 
....................    if (manual[resultado1]==22) 
4B1C:  BCF    FD8.0
4B1E:  MOVLB  1
4B20:  RLCF   x5C,W
4B22:  CLRF   03
4B24:  ADDLW  B0
4B26:  MOVWF  FE9
4B28:  MOVLW  00
4B2A:  ADDWFC 03,W
4B2C:  MOVWF  FEA
4B2E:  MOVFF  FEC,252
4B32:  MOVF   FED,F
4B34:  MOVFF  FEF,251
4B38:  MOVLB  2
4B3A:  MOVF   x51,W
4B3C:  SUBLW  16
4B3E:  BNZ   4B7C
4B40:  MOVF   x52,F
4B42:  BNZ   4B7C
....................    { 
....................     lcd_gotoxy(8,2); 
4B44:  MOVLW  08
4B46:  MOVWF  x5F
4B48:  MOVLW  02
4B4A:  MOVWF  x60
4B4C:  MOVLB  0
4B4E:  CALL   18DC
....................     lcd_putc("DOS->ON"); 
4B52:  MOVLW  1A
4B54:  MOVWF  FF6
4B56:  MOVLW  56
4B58:  MOVWF  FF7
4B5A:  CALL   1992
....................     lcd_gotoxy(6,3); 
4B5E:  MOVLW  06
4B60:  MOVLB  2
4B62:  MOVWF  x5F
4B64:  MOVLW  03
4B66:  MOVWF  x60
4B68:  MOVLB  0
4B6A:  CALL   18DC
....................     lcd_putc("DOS->ON"); 
4B6E:  MOVLW  22
4B70:  MOVWF  FF6
4B72:  MOVLW  56
4B74:  MOVWF  FF7
4B76:  CALL   1992
4B7A:  MOVLB  2
....................    } 
....................    if (manual[resultado1]==23) 
4B7C:  BCF    FD8.0
4B7E:  MOVLB  1
4B80:  RLCF   x5C,W
4B82:  CLRF   03
4B84:  ADDLW  B0
4B86:  MOVWF  FE9
4B88:  MOVLW  00
4B8A:  ADDWFC 03,W
4B8C:  MOVWF  FEA
4B8E:  MOVFF  FEC,252
4B92:  MOVF   FED,F
4B94:  MOVFF  FEF,251
4B98:  MOVLB  2
4B9A:  MOVF   x51,W
4B9C:  SUBLW  17
4B9E:  BNZ   4BDC
4BA0:  MOVF   x52,F
4BA2:  BNZ   4BDC
....................    { 
....................     lcd_gotoxy(8,2); 
4BA4:  MOVLW  08
4BA6:  MOVWF  x5F
4BA8:  MOVLW  02
4BAA:  MOVWF  x60
4BAC:  MOVLB  0
4BAE:  CALL   18DC
....................     lcd_putc("DOS->ON"); 
4BB2:  MOVLW  2A
4BB4:  MOVWF  FF6
4BB6:  MOVLW  56
4BB8:  MOVWF  FF7
4BBA:  CALL   1992
....................     lcd_gotoxy(6,3); 
4BBE:  MOVLW  06
4BC0:  MOVLB  2
4BC2:  MOVWF  x5F
4BC4:  MOVLW  03
4BC6:  MOVWF  x60
4BC8:  MOVLB  0
4BCA:  CALL   18DC
....................     lcd_putc("TODAS->ON"); 
4BCE:  MOVLW  32
4BD0:  MOVWF  FF6
4BD2:  MOVLW  56
4BD4:  MOVWF  FF7
4BD6:  CALL   1992
4BDA:  MOVLB  2
....................    } 
....................    if (manual[resultado1]==44) 
4BDC:  BCF    FD8.0
4BDE:  MOVLB  1
4BE0:  RLCF   x5C,W
4BE2:  CLRF   03
4BE4:  ADDLW  B0
4BE6:  MOVWF  FE9
4BE8:  MOVLW  00
4BEA:  ADDWFC 03,W
4BEC:  MOVWF  FEA
4BEE:  MOVFF  FEC,252
4BF2:  MOVF   FED,F
4BF4:  MOVFF  FEF,251
4BF8:  MOVLB  2
4BFA:  MOVF   x51,W
4BFC:  SUBLW  2C
4BFE:  BNZ   4C3C
4C00:  MOVF   x52,F
4C02:  BNZ   4C3C
....................    { 
....................     lcd_gotoxy(8,2); 
4C04:  MOVLW  08
4C06:  MOVWF  x5F
4C08:  MOVLW  02
4C0A:  MOVWF  x60
4C0C:  MOVLB  0
4C0E:  CALL   18DC
....................     lcd_putc("DOS->OFF"); 
4C12:  MOVLW  3C
4C14:  MOVWF  FF6
4C16:  MOVLW  56
4C18:  MOVWF  FF7
4C1A:  CALL   1992
....................     lcd_gotoxy(6,3); 
4C1E:  MOVLW  06
4C20:  MOVLB  2
4C22:  MOVWF  x5F
4C24:  MOVLW  03
4C26:  MOVWF  x60
4C28:  MOVLB  0
4C2A:  CALL   18DC
....................     lcd_putc("TODAS->OFF"); 
4C2E:  MOVLW  46
4C30:  MOVWF  FF6
4C32:  MOVLW  56
4C34:  MOVWF  FF7
4C36:  CALL   1992
4C3A:  MOVLB  2
....................    } 
....................    if (tecla=='A') 
4C3C:  MOVF   1F,W
4C3E:  SUBLW  41
4C40:  BNZ   4C50
....................    { 
....................     estado_siguiente_maquina_lcd=STATE_03_H1; 
4C42:  MOVLW  0F
4C44:  MOVLB  1
4C46:  MOVWF  x51
....................     tecla='Z'; 
4C48:  MOVLW  5A
4C4A:  MOVWF  1F
....................     num_veces=0; 
4C4C:  CLRF   x53
4C4E:  MOVLB  2
....................    } 
....................    if (tecla=='B') 
4C50:  MOVF   1F,W
4C52:  SUBLW  42
4C54:  BNZ   4C62
....................    { 
....................     estado_siguiente_maquina_lcd=STATE_03_H; 
4C56:  MOVLW  0D
4C58:  MOVLB  1
4C5A:  MOVWF  x51
....................     tecla='Z';//manual[resultado1]=11; 
4C5C:  MOVLW  5A
4C5E:  MOVWF  1F
....................     num_veces=0; 
4C60:  CLRF   x53
....................    } 
....................  break; 
4C62:  MOVLB  1
4C64:  BRA    5078
....................  case STATE_03_H1:        
....................   if (num_veces==0) 
4C66:  MOVLB  1
4C68:  MOVF   x53,F
4C6A:  BNZ   4CEC
....................   { 
....................    lcd_putc('\f'); 
4C6C:  MOVLW  0C
4C6E:  MOVLB  2
4C70:  MOVWF  x5E
4C72:  MOVLB  0
4C74:  CALL   192E
....................    lcd_gotoxy(1,1); 
4C78:  MOVLW  01
4C7A:  MOVLB  2
4C7C:  MOVWF  x5F
4C7E:  MOVWF  x60
4C80:  MOVLB  0
4C82:  CALL   18DC
....................    lcd_putc(" *MANUAL*  3/3  "); 
4C86:  MOVLW  52
4C88:  MOVWF  FF6
4C8A:  MOVLW  56
4C8C:  MOVWF  FF7
4C8E:  CALL   1992
....................    lcd_gotoxy(1,2); 
4C92:  MOVLW  01
4C94:  MOVLB  2
4C96:  MOVWF  x5F
4C98:  MOVLW  02
4C9A:  MOVWF  x60
4C9C:  MOVLB  0
4C9E:  CALL   18DC
....................    lcd_putc("Continua Manual"); 
4CA2:  MOVLW  64
4CA4:  MOVWF  FF6
4CA6:  MOVLW  56
4CA8:  MOVWF  FF7
4CAA:  CALL   1992
....................    lcd_gotoxy(1,3); 
4CAE:  MOVLW  01
4CB0:  MOVLB  2
4CB2:  MOVWF  x5F
4CB4:  MOVLW  03
4CB6:  MOVWF  x60
4CB8:  MOVLB  0
4CBA:  CALL   18DC
....................    lcd_putc("Si:[F1]"); 
4CBE:  MOVLW  74
4CC0:  MOVWF  FF6
4CC2:  MOVLW  56
4CC4:  MOVWF  FF7
4CC6:  CALL   1992
....................    lcd_gotoxy(1,4); 
4CCA:  MOVLW  01
4CCC:  MOVLB  2
4CCE:  MOVWF  x5F
4CD0:  MOVLW  04
4CD2:  MOVWF  x60
4CD4:  MOVLB  0
4CD6:  CALL   18DC
....................    lcd_putc("No:[F2]"); 
4CDA:  MOVLW  7C
4CDC:  MOVWF  FF6
4CDE:  MOVLW  56
4CE0:  MOVWF  FF7
4CE2:  CALL   1992
....................    num_veces=1; 
4CE6:  MOVLW  01
4CE8:  MOVLB  1
4CEA:  MOVWF  x53
....................   } 
....................   estado_siguiente_maquina_lcd=STATE_03_H1; 
4CEC:  MOVLW  0F
4CEE:  MOVWF  x51
....................   if (tecla=='A') 
4CF0:  MOVF   1F,W
4CF2:  SUBLW  41
4CF4:  BNZ   4D00
....................   { 
....................    estado_siguiente_maquina_lcd=STATE_03_H; 
4CF6:  MOVLW  0D
4CF8:  MOVWF  x51
....................    tecla='Z'; 
4CFA:  MOVLW  5A
4CFC:  MOVWF  1F
....................    num_veces=0; 
4CFE:  CLRF   x53
....................   } 
....................   if (tecla=='B') 
4D00:  MOVF   1F,W
4D02:  SUBLW  42
4D04:  BNZ   4D24
....................   { 
....................    estado_siguiente_maquina_lcd=STATE_03; 
4D06:  MOVLW  03
4D08:  MOVWF  x51
....................    tecla='Z'; 
4D0A:  MOVLW  5A
4D0C:  MOVWF  1F
....................    num_veces=0; 
4D0E:  CLRF   x53
....................    manual[1]=46; 
4D10:  MOVLB  0
4D12:  CLRF   xB3
4D14:  MOVLW  2E
4D16:  MOVWF  xB2
....................    manual[2]=46; 
4D18:  CLRF   xB5
4D1A:  MOVWF  xB4
....................    comando_tx=4; 
4D1C:  MOVLB  1
4D1E:  CLRF   x4C
4D20:  MOVLW  04
4D22:  MOVWF  x4B
....................   } 
....................  break; 
4D24:  BRA    5078
....................  case STATE_04_A: 
....................   if (num_veces==0) 
4D26:  MOVLB  1
4D28:  MOVF   x53,F
4D2A:  BNZ   4D90
....................   { 
....................    lcd_putc('\f'); 
4D2C:  MOVLW  0C
4D2E:  MOVLB  2
4D30:  MOVWF  x5E
4D32:  MOVLB  0
4D34:  CALL   192E
....................    lcd_gotoxy(1,1); 
4D38:  MOVLW  01
4D3A:  MOVLB  2
4D3C:  MOVWF  x5F
4D3E:  MOVWF  x60
4D40:  MOVLB  0
4D42:  CALL   18DC
....................    lcd_putc("   *BORRAR*  1/3"); 
4D46:  MOVLW  84
4D48:  MOVWF  FF6
4D4A:  MOVLW  56
4D4C:  MOVWF  FF7
4D4E:  CALL   1992
....................    lcd_gotoxy(1,2); 
4D52:  MOVLW  01
4D54:  MOVLB  2
4D56:  MOVWF  x5F
4D58:  MOVLW  02
4D5A:  MOVWF  x60
4D5C:  MOVLB  0
4D5E:  CALL   18DC
....................    lcd_putc("F1:Lim. Humedad"); 
4D62:  MOVLW  96
4D64:  MOVWF  FF6
4D66:  MOVLW  56
4D68:  MOVWF  FF7
4D6A:  CALL   1992
....................    lcd_gotoxy(1,4); 
4D6E:  MOVLW  01
4D70:  MOVLB  2
4D72:  MOVWF  x5F
4D74:  MOVLW  04
4D76:  MOVWF  x60
4D78:  MOVLB  0
4D7A:  CALL   18DC
....................    lcd_putc("F2:Lim. Tiempo"); 
4D7E:  MOVLW  A6
4D80:  MOVWF  FF6
4D82:  MOVLW  56
4D84:  MOVWF  FF7
4D86:  CALL   1992
....................    num_veces=1; 
4D8A:  MOVLW  01
4D8C:  MOVLB  1
4D8E:  MOVWF  x53
....................   } 
....................   if (tecla=='A') 
4D90:  MOVF   1F,W
4D92:  SUBLW  41
4D94:  BNZ   4D9C
....................   { 
....................    estado_siguiente_maquina_lcd=STATE_04_B; 
4D96:  MOVLW  11
4D98:  MOVWF  x51
....................    num_veces=0; 
4D9A:  CLRF   x53
....................   } 
....................   if (tecla=='B') 
4D9C:  MOVF   1F,W
4D9E:  SUBLW  42
4DA0:  BNZ   4DAC
....................   { 
....................     estado_siguiente_maquina_lcd=STATE_04_C; 
4DA2:  MOVLW  12
4DA4:  MOVWF  x51
....................     tecla='Z'; 
4DA6:  MOVLW  5A
4DA8:  MOVWF  1F
....................     num_veces=0; 
4DAA:  CLRF   x53
....................   } 
.................... break; 
4DAC:  BRA    5078
.................... case STATE_04_B: 
....................   if (num_veces==0) 
4DAE:  MOVLB  1
4DB0:  MOVF   x53,F
4DB2:  BNZ   4E34
....................   { 
....................    lcd_putc('\f'); 
4DB4:  MOVLW  0C
4DB6:  MOVLB  2
4DB8:  MOVWF  x5E
4DBA:  MOVLB  0
4DBC:  CALL   192E
....................    lcd_gotoxy(1,1); 
4DC0:  MOVLW  01
4DC2:  MOVLB  2
4DC4:  MOVWF  x5F
4DC6:  MOVWF  x60
4DC8:  MOVLB  0
4DCA:  CALL   18DC
....................    lcd_putc("   *BORRAR*  2/3");  
4DCE:  MOVLW  B6
4DD0:  MOVWF  FF6
4DD2:  MOVLW  56
4DD4:  MOVWF  FF7
4DD6:  CALL   1992
....................    lcd_gotoxy(1,2); 
4DDA:  MOVLW  01
4DDC:  MOVLB  2
4DDE:  MOVWF  x5F
4DE0:  MOVLW  02
4DE2:  MOVWF  x60
4DE4:  MOVLB  0
4DE6:  CALL   18DC
....................    lcd_putc("Lim. Humedad:?"); 
4DEA:  MOVLW  C8
4DEC:  MOVWF  FF6
4DEE:  MOVLW  56
4DF0:  MOVWF  FF7
4DF2:  CALL   1992
....................    lcd_gotoxy(1,3); 
4DF6:  MOVLW  01
4DF8:  MOVLB  2
4DFA:  MOVWF  x5F
4DFC:  MOVLW  03
4DFE:  MOVWF  x60
4E00:  MOVLB  0
4E02:  CALL   18DC
....................    lcd_putc("Si:[F3]"); 
4E06:  MOVLW  D8
4E08:  MOVWF  FF6
4E0A:  MOVLW  56
4E0C:  MOVWF  FF7
4E0E:  CALL   1992
....................    lcd_gotoxy(1,4); 
4E12:  MOVLW  01
4E14:  MOVLB  2
4E16:  MOVWF  x5F
4E18:  MOVLW  04
4E1A:  MOVWF  x60
4E1C:  MOVLB  0
4E1E:  CALL   18DC
....................    lcd_putc("No:[F2]"); 
4E22:  MOVLW  E0
4E24:  MOVWF  FF6
4E26:  MOVLW  56
4E28:  MOVWF  FF7
4E2A:  CALL   1992
....................    num_veces=1; 
4E2E:  MOVLW  01
4E30:  MOVLB  1
4E32:  MOVWF  x53
....................   } 
....................   if (tecla=='C') 
4E34:  MOVF   1F,W
4E36:  SUBLW  43
4E38:  BNZ   4EFA
....................   { 
....................    minima[1]=0; 
4E3A:  MOVLB  0
4E3C:  CLRF   x9B
4E3E:  CLRF   x9A
....................    maxima[1]=0; 
4E40:  CLRF   xA1
4E42:  CLRF   xA0
....................    minima[2]=0; 
4E44:  CLRF   x9D
4E46:  CLRF   x9C
....................    maxima[2]=0; 
4E48:  CLRF   xA3
4E4A:  CLRF   xA2
....................    write_eeprom(minima_placa_1_e, minima[1]); 
4E4C:  CLRF   FA9
4E4E:  MOVFF  9A,FA8
4E52:  BCF    FA6.6
4E54:  BCF    FA6.7
4E56:  BSF    FA6.2
4E58:  MOVF   FF2,W
4E5A:  MOVWF  00
4E5C:  BCF    FF2.7
4E5E:  MOVLB  F
4E60:  MOVLW  55
4E62:  MOVWF  FA7
4E64:  MOVLW  AA
4E66:  MOVWF  FA7
4E68:  BSF    FA6.1
4E6A:  BTFSC  FA6.1
4E6C:  BRA    4E6A
4E6E:  BCF    FA6.2
4E70:  MOVF   00,W
4E72:  IORWF  FF2,F
....................    write_eeprom(minima_placa_2_e, minima[2]); 
4E74:  MOVLW  02
4E76:  MOVWF  FA9
4E78:  MOVFF  9C,FA8
4E7C:  BCF    FA6.6
4E7E:  BCF    FA6.7
4E80:  BSF    FA6.2
4E82:  MOVFF  FF2,00
4E86:  BCF    FF2.7
4E88:  MOVLW  55
4E8A:  MOVWF  FA7
4E8C:  MOVLW  AA
4E8E:  MOVWF  FA7
4E90:  BSF    FA6.1
4E92:  BTFSC  FA6.1
4E94:  BRA    4E92
4E96:  BCF    FA6.2
4E98:  MOVF   00,W
4E9A:  IORWF  FF2,F
....................    write_eeprom(maxima_placa_1_e, maxima[1] ); 
4E9C:  MOVLW  01
4E9E:  MOVWF  FA9
4EA0:  MOVFF  A0,FA8
4EA4:  BCF    FA6.6
4EA6:  BCF    FA6.7
4EA8:  BSF    FA6.2
4EAA:  MOVFF  FF2,00
4EAE:  BCF    FF2.7
4EB0:  MOVLW  55
4EB2:  MOVWF  FA7
4EB4:  MOVLW  AA
4EB6:  MOVWF  FA7
4EB8:  BSF    FA6.1
4EBA:  BTFSC  FA6.1
4EBC:  BRA    4EBA
4EBE:  BCF    FA6.2
4EC0:  MOVF   00,W
4EC2:  IORWF  FF2,F
....................    write_eeprom(maxima_placa_2_e, maxima[2]); 
4EC4:  MOVLW  03
4EC6:  MOVWF  FA9
4EC8:  MOVFF  A2,FA8
4ECC:  BCF    FA6.6
4ECE:  BCF    FA6.7
4ED0:  BSF    FA6.2
4ED2:  MOVFF  FF2,00
4ED6:  BCF    FF2.7
4ED8:  MOVLW  55
4EDA:  MOVWF  FA7
4EDC:  MOVLW  AA
4EDE:  MOVWF  FA7
4EE0:  BSF    FA6.1
4EE2:  BTFSC  FA6.1
4EE4:  BRA    4EE2
4EE6:  BCF    FA6.2
4EE8:  MOVF   00,W
4EEA:  IORWF  FF2,F
....................    estado_siguiente_maquina_lcd=STATE_04_D; 
4EEC:  MOVLW  13
4EEE:  MOVLB  1
4EF0:  MOVWF  x51
....................    comando_tx=1; 
4EF2:  CLRF   x4C
4EF4:  MOVLW  01
4EF6:  MOVWF  x4B
....................    num_veces=0; 
4EF8:  CLRF   x53
....................   } 
....................   if (tecla=='B') 
4EFA:  MOVF   1F,W
4EFC:  SUBLW  42
4EFE:  BNZ   4F0A
....................   { 
....................    estado_siguiente_maquina_lcd=STATE_04; 
4F00:  MOVLW  04
4F02:  MOVWF  x51
....................    tecla='Z'; 
4F04:  MOVLW  5A
4F06:  MOVWF  1F
....................    num_veces=0; 
4F08:  CLRF   x53
....................   } 
....................   break;    
4F0A:  BRA    5078
.................... case STATE_04_C: 
....................   if (num_veces==0) 
4F0C:  MOVLB  1
4F0E:  MOVF   x53,F
4F10:  BNZ   4F92
....................   { 
....................    lcd_putc('\f'); 
4F12:  MOVLW  0C
4F14:  MOVLB  2
4F16:  MOVWF  x5E
4F18:  MOVLB  0
4F1A:  CALL   192E
....................    lcd_gotoxy(1,1); 
4F1E:  MOVLW  01
4F20:  MOVLB  2
4F22:  MOVWF  x5F
4F24:  MOVWF  x60
4F26:  MOVLB  0
4F28:  CALL   18DC
....................    lcd_putc("   *BORRAR*  2/3");  
4F2C:  MOVLW  E8
4F2E:  MOVWF  FF6
4F30:  MOVLW  56
4F32:  MOVWF  FF7
4F34:  CALL   1992
....................    lcd_gotoxy(1,2); 
4F38:  MOVLW  01
4F3A:  MOVLB  2
4F3C:  MOVWF  x5F
4F3E:  MOVLW  02
4F40:  MOVWF  x60
4F42:  MOVLB  0
4F44:  CALL   18DC
....................    lcd_putc("Limites Tiempo:?"); 
4F48:  MOVLW  FA
4F4A:  MOVWF  FF6
4F4C:  MOVLW  56
4F4E:  MOVWF  FF7
4F50:  CALL   1992
....................    lcd_gotoxy(1,3); 
4F54:  MOVLW  01
4F56:  MOVLB  2
4F58:  MOVWF  x5F
4F5A:  MOVLW  03
4F5C:  MOVWF  x60
4F5E:  MOVLB  0
4F60:  CALL   18DC
....................    lcd_putc("Si:[F3]"); 
4F64:  MOVLW  0C
4F66:  MOVWF  FF6
4F68:  MOVLW  57
4F6A:  MOVWF  FF7
4F6C:  CALL   1992
....................    lcd_gotoxy(1,4); 
4F70:  MOVLW  01
4F72:  MOVLB  2
4F74:  MOVWF  x5F
4F76:  MOVLW  04
4F78:  MOVWF  x60
4F7A:  MOVLB  0
4F7C:  CALL   18DC
....................    lcd_putc("No:[F2]"); 
4F80:  MOVLW  14
4F82:  MOVWF  FF6
4F84:  MOVLW  57
4F86:  MOVWF  FF7
4F88:  CALL   1992
....................    num_veces=1; 
4F8C:  MOVLW  01
4F8E:  MOVLB  1
4F90:  MOVWF  x53
....................   } 
....................   if (tecla=='C') 
4F92:  MOVF   1F,W
4F94:  SUBLW  43
4F96:  BNZ   4FC8
....................   { 
....................    hora_inicio[1]     =0; 
4F98:  MOVLB  0
4F9A:  CLRF   xBF
4F9C:  CLRF   xBE
....................    hora_inicio[2]     =0; 
4F9E:  CLRF   xC1
4FA0:  CLRF   xC0
....................    minutos_inicio[1]  =0; 
4FA2:  CLRF   xCB
4FA4:  CLRF   xCA
....................    minutos_inicio[2]  =0; 
4FA6:  CLRF   xCD
4FA8:  CLRF   xCC
....................    hora_fin[1]        =0; 
4FAA:  CLRF   xC5
4FAC:  CLRF   xC4
....................    hora_fin[2]        =0; 
4FAE:  CLRF   xC7
4FB0:  CLRF   xC6
....................    minutos_fin[1]     =0; 
4FB2:  CLRF   xD1
4FB4:  CLRF   xD0
....................    minutos_fin[2]     =0; 
4FB6:  CLRF   xD3
4FB8:  CLRF   xD2
....................    comando_tx=2; 
4FBA:  MOVLB  1
4FBC:  CLRF   x4C
4FBE:  MOVLW  02
4FC0:  MOVWF  x4B
....................    estado_siguiente_maquina_lcd=STATE_04_D; 
4FC2:  MOVLW  13
4FC4:  MOVWF  x51
....................    num_veces=0; 
4FC6:  CLRF   x53
....................   } 
....................   if (tecla=='B') 
4FC8:  MOVF   1F,W
4FCA:  SUBLW  42
4FCC:  BNZ   4FD8
....................   { 
....................    estado_siguiente_maquina_lcd=STATE_04; 
4FCE:  MOVLW  04
4FD0:  MOVWF  x51
....................    tecla='Z'; 
4FD2:  MOVLW  5A
4FD4:  MOVWF  1F
....................    num_veces=0; 
4FD6:  CLRF   x53
....................   }  
....................  break; 
4FD8:  BRA    5078
.................... case STATE_04_D: 
....................   if (num_veces==0) 
4FDA:  MOVLB  1
4FDC:  MOVF   x53,F
4FDE:  BNZ   5060
....................   { 
....................    lcd_putc('\f'); 
4FE0:  MOVLW  0C
4FE2:  MOVLB  2
4FE4:  MOVWF  x5E
4FE6:  MOVLB  0
4FE8:  CALL   192E
....................    lcd_gotoxy(1,1); 
4FEC:  MOVLW  01
4FEE:  MOVLB  2
4FF0:  MOVWF  x5F
4FF2:  MOVWF  x60
4FF4:  MOVLB  0
4FF6:  CALL   18DC
....................    lcd_putc("   *BORRAR*  3/3");  
4FFA:  MOVLW  1C
4FFC:  MOVWF  FF6
4FFE:  MOVLW  57
5000:  MOVWF  FF7
5002:  CALL   1992
....................    lcd_gotoxy(1,2); 
5006:  MOVLW  01
5008:  MOVLB  2
500A:  MOVWF  x5F
500C:  MOVLW  02
500E:  MOVWF  x60
5010:  MOVLB  0
5012:  CALL   18DC
....................    lcd_putc("El reinicio fue"); 
5016:  MOVLW  2E
5018:  MOVWF  FF6
501A:  MOVLW  57
501C:  MOVWF  FF7
501E:  CALL   1992
....................    lcd_gotoxy(1,3); 
5022:  MOVLW  01
5024:  MOVLB  2
5026:  MOVWF  x5F
5028:  MOVLW  03
502A:  MOVWF  x60
502C:  MOVLB  0
502E:  CALL   18DC
....................    lcd_putc("exitoso"); 
5032:  MOVLW  3E
5034:  MOVWF  FF6
5036:  MOVLW  57
5038:  MOVWF  FF7
503A:  CALL   1992
....................    lcd_gotoxy(1,4); 
503E:  MOVLW  01
5040:  MOVLB  2
5042:  MOVWF  x5F
5044:  MOVLW  04
5046:  MOVWF  x60
5048:  MOVLB  0
504A:  CALL   18DC
....................    lcd_putc("Continuar:[F1]"); 
504E:  MOVLW  46
5050:  MOVWF  FF6
5052:  MOVLW  57
5054:  MOVWF  FF7
5056:  CALL   1992
....................    num_veces=1; 
505A:  MOVLW  01
505C:  MOVLB  1
505E:  MOVWF  x53
....................   } 
....................   estado_siguiente_maquina_lcd=STATE_04_D; 
5060:  MOVLW  13
5062:  MOVWF  x51
....................   if (tecla=='A') 
5064:  MOVF   1F,W
5066:  SUBLW  41
5068:  BNZ   5074
....................   { 
....................    estado_siguiente_maquina_lcd=STATE_04; 
506A:  MOVLW  04
506C:  MOVWF  x51
....................    tecla='Z';  
506E:  MOVLW  5A
5070:  MOVWF  1F
....................    num_veces=0; 
5072:  CLRF   x53
5074:  MOVLB  0
5076:  MOVLB  1
....................   }  
....................  } 
.................... } 
5078:  MOVLW  36
507A:  MOVWF  xBC
507C:  MOVLW  20
507E:  MOVWF  xBD
5080:  GOTO   7F16
5084:  MOVLB  0
5086:  RETURN 0
....................  
.................... void maquina_de_estado_teclado_analogico() 
.................... {  
....................  tarea_teclado_analogico(); 
*
5994:  BRA    579C
....................  setup_adc_ports(NO_ANALOGS); 
5996:  MOVF   FC1,W
5998:  ANDLW  C0
599A:  IORLW  0F
599C:  MOVWF  FC1
.................... } 
599E:  MOVLW  94
59A0:  MOVLB  1
59A2:  MOVWF  xCA
59A4:  MOVLW  59
59A6:  MOVWF  xCB
59A8:  GOTO   7F16
59AC:  MOVLB  0
59AE:  RETURN 0
....................  
.................... void reloj_tiempo_real() 
.................... { 
....................   delay_ms(15); 
*
5A44:  MOVLW  0F
5A46:  MOVLB  2
5A48:  MOVWF  x5F
5A4A:  MOVLB  0
5A4C:  CALL   0D34
....................   ds1307_get_time(hora,minutos,segundos); 
....................   delay_ms(15);  
*
5B30:  MOVLW  0F
5B32:  MOVLB  2
5B34:  MOVWF  x5F
5B36:  MOVLB  0
5B38:  CALL   0D34
....................   ds1307_get_date(dia,mes,anio,dow1); 
....................   delay_ms(15); 
*
5C32:  MOVLW  0F
5C34:  MOVLB  2
5C36:  MOVWF  x5F
5C38:  MOVLB  0
5C3A:  CALL   0D34
.................... } 
5C3E:  MOVLW  44
5C40:  MOVLB  1
5C42:  MOVWF  xB5
5C44:  MOVLW  5A
5C46:  MOVWF  xB6
5C48:  GOTO   7F16
5C4C:  MOVLB  0
5C4E:  RETURN 0
.................... void maquina_de_estado_reportes() 
.................... { 
....................  switch(estado_siguiente_maquina_reportes){ 
*
5DF6:  MOVLB  1
5DF8:  MOVF   x96,W
5DFA:  ADDLW  F9
5DFC:  BTFSC  FD8.0
5DFE:  GOTO   7424
5E02:  ADDLW  07
5E04:  MOVLB  0
5E06:  GOTO   7434
....................  case ST_INI: 
....................   if (leer_MEM(0)<1022) 
5E0A:  MOVLB  2
5E0C:  CLRF   x53
5E0E:  CLRF   x52
5E10:  MOVLB  0
5E12:  RCALL  5C50
....................   {   
....................     guardar_MEM(200,(long int)leer_MEM(0)+1); 
5E14:  MOVLB  2
5E16:  CLRF   x53
5E18:  CLRF   x52
5E1A:  MOVLB  0
5E1C:  RCALL  5C50
5E1E:  MOVLB  2
5E20:  CLRF   x52
5E22:  MOVFF  01,251
5E26:  MOVLW  01
5E28:  ADDWF  x51,F
5E2A:  MOVLW  00
5E2C:  ADDWFC x52,F
5E2E:  MOVLW  C8
5E30:  MOVWF  x53
5E32:  MOVFF  252,255
5E36:  MOVFF  251,254
5E3A:  MOVLB  0
5E3C:  RCALL  5D04
....................     guardar_MEM(200,(long int)leer_MEM(0)+1); 
5E3E:  MOVLB  2
5E40:  CLRF   x53
5E42:  CLRF   x52
5E44:  MOVLB  0
5E46:  RCALL  5C50
5E48:  MOVLB  2
5E4A:  CLRF   x52
5E4C:  MOVFF  01,251
5E50:  MOVLW  01
5E52:  ADDWF  x51,F
5E54:  MOVLW  00
5E56:  ADDWFC x52,F
5E58:  MOVLW  C8
5E5A:  MOVWF  x53
5E5C:  MOVFF  252,255
5E60:  MOVFF  251,254
5E64:  MOVLB  0
5E66:  RCALL  5D04
....................     guardar_MEM((long int)leer_MEM(0)+1,0); 
5E68:  MOVLB  2
5E6A:  CLRF   x53
5E6C:  CLRF   x52
5E6E:  MOVLB  0
5E70:  RCALL  5C50
5E72:  MOVLB  2
5E74:  CLRF   x52
5E76:  MOVFF  01,251
5E7A:  MOVLW  01
5E7C:  ADDWF  x51,F
5E7E:  MOVLW  00
5E80:  ADDWFC x52,F
5E82:  MOVFF  251,253
5E86:  CLRF   x55
5E88:  CLRF   x54
5E8A:  MOVLB  0
5E8C:  RCALL  5D04
....................     guardar_MEM(201,(long int)leer_MEM(0)+1); 
5E8E:  MOVLB  2
5E90:  CLRF   x53
5E92:  CLRF   x52
5E94:  MOVLB  0
5E96:  RCALL  5C50
5E98:  MOVLB  2
5E9A:  CLRF   x52
5E9C:  MOVFF  01,251
5EA0:  MOVLW  01
5EA2:  ADDWF  x51,F
5EA4:  MOVLW  00
5EA6:  ADDWFC x52,F
5EA8:  MOVLW  C9
5EAA:  MOVWF  x53
5EAC:  MOVFF  252,255
5EB0:  MOVFF  251,254
5EB4:  MOVLB  0
5EB6:  RCALL  5D04
....................     guardar_MEM((long int)leer_MEM(0)+1,0); 
5EB8:  MOVLB  2
5EBA:  CLRF   x53
5EBC:  CLRF   x52
5EBE:  MOVLB  0
5EC0:  RCALL  5C50
5EC2:  MOVLB  2
5EC4:  CLRF   x52
5EC6:  MOVFF  01,251
5ECA:  MOVLW  01
5ECC:  ADDWF  x51,F
5ECE:  MOVLW  00
5ED0:  ADDWFC x52,F
5ED2:  MOVFF  251,253
5ED6:  CLRF   x55
5ED8:  CLRF   x54
5EDA:  MOVLB  0
5EDC:  RCALL  5D04
....................     guardar_MEM((byte)dia,(long int)leer_MEM(0)+1); 
5EDE:  MOVLB  2
5EE0:  CLRF   x53
5EE2:  CLRF   x52
5EE4:  MOVLB  0
5EE6:  RCALL  5C50
5EE8:  MOVLB  2
5EEA:  CLRF   x52
5EEC:  MOVFF  01,251
5EF0:  MOVLW  01
5EF2:  ADDWF  x51,F
5EF4:  MOVLW  00
5EF6:  ADDWFC x52,F
5EF8:  MOVFF  7C,253
5EFC:  MOVFF  252,255
5F00:  MOVFF  251,254
5F04:  MOVLB  0
5F06:  RCALL  5D04
....................     guardar_MEM((long int)leer_MEM(0)+1,0); 
5F08:  MOVLB  2
5F0A:  CLRF   x53
5F0C:  CLRF   x52
5F0E:  MOVLB  0
5F10:  RCALL  5C50
5F12:  MOVLB  2
5F14:  CLRF   x52
5F16:  MOVFF  01,251
5F1A:  MOVLW  01
5F1C:  ADDWF  x51,F
5F1E:  MOVLW  00
5F20:  ADDWFC x52,F
5F22:  MOVFF  251,253
5F26:  CLRF   x55
5F28:  CLRF   x54
5F2A:  MOVLB  0
5F2C:  RCALL  5D04
....................     guardar_MEM((byte)mes,(long int)leer_MEM(0)+1); 
5F2E:  MOVLB  2
5F30:  CLRF   x53
5F32:  CLRF   x52
5F34:  MOVLB  0
5F36:  RCALL  5C50
5F38:  MOVLB  2
5F3A:  CLRF   x52
5F3C:  MOVFF  01,251
5F40:  MOVLW  01
5F42:  ADDWF  x51,F
5F44:  MOVLW  00
5F46:  ADDWFC x52,F
5F48:  MOVFF  7D,253
5F4C:  MOVFF  252,255
5F50:  MOVFF  251,254
5F54:  MOVLB  0
5F56:  RCALL  5D04
....................     guardar_MEM((long int)leer_MEM(0)+1,0); 
5F58:  MOVLB  2
5F5A:  CLRF   x53
5F5C:  CLRF   x52
5F5E:  MOVLB  0
5F60:  RCALL  5C50
5F62:  MOVLB  2
5F64:  CLRF   x52
5F66:  MOVFF  01,251
5F6A:  MOVLW  01
5F6C:  ADDWF  x51,F
5F6E:  MOVLW  00
5F70:  ADDWFC x52,F
5F72:  MOVFF  251,253
5F76:  CLRF   x55
5F78:  CLRF   x54
5F7A:  MOVLB  0
5F7C:  RCALL  5D04
....................     guardar_MEM((byte)anio,(long int)leer_MEM(0)+1); 
5F7E:  MOVLB  2
5F80:  CLRF   x53
5F82:  CLRF   x52
5F84:  MOVLB  0
5F86:  RCALL  5C50
5F88:  MOVLB  2
5F8A:  CLRF   x52
5F8C:  MOVFF  01,251
5F90:  MOVLW  01
5F92:  ADDWF  x51,F
5F94:  MOVLW  00
5F96:  ADDWFC x52,F
5F98:  MOVFF  7E,253
5F9C:  MOVFF  252,255
5FA0:  MOVFF  251,254
5FA4:  MOVLB  0
5FA6:  RCALL  5D04
....................     guardar_MEM((long int)leer_MEM(0)+1,0); 
5FA8:  MOVLB  2
5FAA:  CLRF   x53
5FAC:  CLRF   x52
5FAE:  MOVLB  0
5FB0:  RCALL  5C50
5FB2:  MOVLB  2
5FB4:  CLRF   x52
5FB6:  MOVFF  01,251
5FBA:  MOVLW  01
5FBC:  ADDWF  x51,F
5FBE:  MOVLW  00
5FC0:  ADDWFC x52,F
5FC2:  MOVFF  251,253
5FC6:  CLRF   x55
5FC8:  CLRF   x54
5FCA:  MOVLB  0
5FCC:  RCALL  5D04
....................     guardar_MEM((byte)hora,(long int)leer_MEM(0)+1); 
5FCE:  MOVLB  2
5FD0:  CLRF   x53
5FD2:  CLRF   x52
5FD4:  MOVLB  0
5FD6:  RCALL  5C50
5FD8:  MOVLB  2
5FDA:  CLRF   x52
5FDC:  MOVFF  01,251
5FE0:  MOVLW  01
5FE2:  ADDWF  x51,F
5FE4:  MOVLW  00
5FE6:  ADDWFC x52,F
5FE8:  MOVFF  7B,253
5FEC:  MOVFF  252,255
5FF0:  MOVFF  251,254
5FF4:  MOVLB  0
5FF6:  RCALL  5D04
....................     guardar_MEM((long int)leer_MEM(0)+1,0); 
5FF8:  MOVLB  2
5FFA:  CLRF   x53
5FFC:  CLRF   x52
5FFE:  MOVLB  0
6000:  RCALL  5C50
6002:  MOVLB  2
6004:  CLRF   x52
6006:  MOVFF  01,251
600A:  MOVLW  01
600C:  ADDWF  x51,F
600E:  MOVLW  00
6010:  ADDWFC x52,F
6012:  MOVFF  251,253
6016:  CLRF   x55
6018:  CLRF   x54
601A:  MOVLB  0
601C:  RCALL  5D04
....................     guardar_MEM((byte)minutos,(long int)leer_MEM(0)+1); 
601E:  MOVLB  2
6020:  CLRF   x53
6022:  CLRF   x52
6024:  MOVLB  0
6026:  RCALL  5C50
6028:  MOVLB  2
602A:  CLRF   x52
602C:  MOVFF  01,251
6030:  MOVLW  01
6032:  ADDWF  x51,F
6034:  MOVLW  00
6036:  ADDWFC x52,F
6038:  MOVFF  7A,253
603C:  MOVFF  252,255
6040:  MOVFF  251,254
6044:  MOVLB  0
6046:  RCALL  5D04
....................     guardar_MEM((long int)leer_MEM(0)+1,0); 
6048:  MOVLB  2
604A:  CLRF   x53
604C:  CLRF   x52
604E:  MOVLB  0
6050:  RCALL  5C50
6052:  MOVLB  2
6054:  CLRF   x52
6056:  MOVFF  01,251
605A:  MOVLW  01
605C:  ADDWF  x51,F
605E:  MOVLW  00
6060:  ADDWFC x52,F
6062:  MOVFF  251,253
6066:  CLRF   x55
6068:  CLRF   x54
606A:  MOVLB  0
606C:  RCALL  5D04
....................     if ((espera_placa_uno!=max_espera)) 
606E:  MOVLB  1
6070:  MOVF   xA6,W
6072:  SUBWF  xA4,W
6074:  BZ    60CC
....................     { 
....................      guardar_MEM(204,(long int)leer_MEM(0)+1); 
6076:  MOVLB  2
6078:  CLRF   x53
607A:  CLRF   x52
607C:  MOVLB  0
607E:  RCALL  5C50
6080:  MOVLB  2
6082:  CLRF   x52
6084:  MOVFF  01,251
6088:  MOVLW  01
608A:  ADDWF  x51,F
608C:  MOVLW  00
608E:  ADDWFC x52,F
6090:  MOVLW  CC
6092:  MOVWF  x53
6094:  MOVFF  252,255
6098:  MOVFF  251,254
609C:  MOVLB  0
609E:  RCALL  5D04
....................      guardar_MEM((long int)leer_MEM(0)+1,0); 
60A0:  MOVLB  2
60A2:  CLRF   x53
60A4:  CLRF   x52
60A6:  MOVLB  0
60A8:  RCALL  5C50
60AA:  MOVLB  2
60AC:  CLRF   x52
60AE:  MOVFF  01,251
60B2:  MOVLW  01
60B4:  ADDWF  x51,F
60B6:  MOVLW  00
60B8:  ADDWFC x52,F
60BA:  MOVFF  251,253
60BE:  CLRF   x55
60C0:  CLRF   x54
60C2:  MOVLB  0
60C4:  RCALL  5D04
....................      inicializacion_1=1; 
60C6:  MOVLW  01
60C8:  MOVLB  1
60CA:  MOVWF  xA7
....................     } 
....................     if ((espera_placa_dos!=max_espera)) 
60CC:  MOVF   xA6,W
60CE:  SUBWF  xA5,W
60D0:  BZ    6128
....................     { 
....................      guardar_MEM(205,(long int)leer_MEM(0)+1); 
60D2:  MOVLB  2
60D4:  CLRF   x53
60D6:  CLRF   x52
60D8:  MOVLB  0
60DA:  RCALL  5C50
60DC:  MOVLB  2
60DE:  CLRF   x52
60E0:  MOVFF  01,251
60E4:  MOVLW  01
60E6:  ADDWF  x51,F
60E8:  MOVLW  00
60EA:  ADDWFC x52,F
60EC:  MOVLW  CD
60EE:  MOVWF  x53
60F0:  MOVFF  252,255
60F4:  MOVFF  251,254
60F8:  MOVLB  0
60FA:  RCALL  5D04
....................      guardar_MEM((long int)leer_MEM(0)+1,0); 
60FC:  MOVLB  2
60FE:  CLRF   x53
6100:  CLRF   x52
6102:  MOVLB  0
6104:  RCALL  5C50
6106:  MOVLB  2
6108:  CLRF   x52
610A:  MOVFF  01,251
610E:  MOVLW  01
6110:  ADDWF  x51,F
6112:  MOVLW  00
6114:  ADDWFC x52,F
6116:  MOVFF  251,253
611A:  CLRF   x55
611C:  CLRF   x54
611E:  MOVLB  0
6120:  RCALL  5D04
....................      inicializacion_2=1; 
6122:  MOVLW  01
6124:  MOVLB  1
6126:  MOVWF  xA8
....................     } 
....................     if ((espera_placa_uno==max_espera)&&(espera_placa_dos==max_espera)) 
6128:  MOVF   xA6,W
612A:  SUBWF  xA4,W
612C:  BNZ   618C
612E:  MOVF   xA6,W
6130:  SUBWF  xA5,W
6132:  BNZ   618C
....................     { 
....................      guardar_MEM(206,(long int)leer_MEM(0)+1); 
6134:  MOVLB  2
6136:  CLRF   x53
6138:  CLRF   x52
613A:  MOVLB  0
613C:  RCALL  5C50
613E:  MOVLB  2
6140:  CLRF   x52
6142:  MOVFF  01,251
6146:  MOVLW  01
6148:  ADDWF  x51,F
614A:  MOVLW  00
614C:  ADDWFC x52,F
614E:  MOVLW  CE
6150:  MOVWF  x53
6152:  MOVFF  252,255
6156:  MOVFF  251,254
615A:  MOVLB  0
615C:  RCALL  5D04
....................      guardar_MEM((long int)leer_MEM(0)+1,0);inicializacion_1=1;inicializacion_2=1; 
615E:  MOVLB  2
6160:  CLRF   x53
6162:  CLRF   x52
6164:  MOVLB  0
6166:  RCALL  5C50
6168:  MOVLB  2
616A:  CLRF   x52
616C:  MOVFF  01,251
6170:  MOVLW  01
6172:  ADDWF  x51,F
6174:  MOVLW  00
6176:  ADDWFC x52,F
6178:  MOVFF  251,253
617C:  CLRF   x55
617E:  CLRF   x54
6180:  MOVLB  0
6182:  RCALL  5D04
6184:  MOVLW  01
6186:  MOVLB  1
6188:  MOVWF  xA7
618A:  MOVWF  xA8
....................     } 
....................     estado_siguiente_maquina_reportes=ST_LIMITES_HUMEDAD; 
618C:  MOVLW  05
618E:  MOVWF  x96
....................     veces_registro=0; 
6190:  CLRF   x97
....................  } 
....................  break; 
6192:  GOTO   7424
....................  case ST_ACTIVO: 
....................   if (((((estado_valvula_1_placa_1!=estado_valvula_1_placa_1_anterior) ||(estado_valvula_2_placa_1!=estado_valvula_2_placa_1_anterior))&& 
....................                                                                                              ((tipo_riego_placa_1==2)&&(manual[1]!= manual_anterior[1])))|| 
....................         (( (estado_valvula_1_placa_2!=estado_valvula_1_placa_2_anterior)||(estado_valvula_2_placa_2!=estado_valvula_2_placa_2_anterior))&& 
....................                                                                                                ( (tipo_riego_placa_2==2)&&(manual[2]!= manual_anterior[2]))))&&(leer_MEM(0)<1022)) 
6196:  MOVLB  1
6198:  MOVF   x89,W
619A:  SUBWF  x85,W
619C:  BNZ   61A4
619E:  MOVF   x8A,W
61A0:  SUBWF  x86,W
61A2:  BZ    61BA
61A4:  MOVF   x8D,W
61A6:  SUBLW  02
61A8:  BNZ   61BA
61AA:  MOVLB  0
61AC:  MOVF   xB8,W
61AE:  SUBWF  xB2,W
61B0:  BNZ   61F4
61B2:  MOVF   xB9,W
61B4:  SUBWF  xB3,W
61B6:  BNZ   61F4
61B8:  MOVLB  1
61BA:  MOVF   x8B,W
61BC:  SUBWF  x87,W
61BE:  BNZ   61C6
61C0:  MOVF   x8C,W
61C2:  SUBWF  x88,W
61C4:  BZ    61FA
61C6:  MOVF   x8F,W
61C8:  SUBLW  02
61CA:  BNZ   61FA
61CC:  MOVLB  0
61CE:  MOVF   xBA,W
61D0:  SUBWF  xB4,W
61D2:  BNZ   61F4
61D4:  MOVF   xBB,W
61D6:  SUBWF  xB5,W
61D8:  BTFSS  FD8.2
61DA:  BRA    61E0
61DC:  MOVLB  1
61DE:  BRA    61FA
61E0:  BRA    61F4
61E2:  MOVLB  2
61E4:  CLRF   x53
61E6:  CLRF   x52
61E8:  MOVLB  0
61EA:  RCALL  5C50
61EC:  BTFSC  00.0
61EE:  BRA    61F4
61F0:  MOVLB  1
61F2:  BRA    61FA
....................         estado_siguiente_maquina_reportes=ST_APERTURA_VALVULA_MANUAL; 
61F4:  MOVLW  02
61F6:  MOVLB  1
61F8:  MOVWF  x96
....................      
....................   if (((((estado_valvula_1_placa_1!=estado_valvula_1_placa_1_anterior) ||(estado_valvula_2_placa_1!=estado_valvula_2_placa_1_anterior))&&(tipo_riego_placa_1==1))|| 
....................         (((estado_valvula_1_placa_2!=estado_valvula_1_placa_2_anterior)||(estado_valvula_2_placa_2!=estado_valvula_2_placa_2_anterior))&&(tipo_riego_placa_2==1)))&& 
....................              (leer_MEM(0)<1022))//&&(manual[1]!=45)&&(manual[2]!=45)&&(manual[1]!=46)&&(manual[2]!=46) 
61FA:  MOVF   x89,W
61FC:  SUBWF  x85,W
61FE:  BNZ   6206
6200:  MOVF   x8A,W
6202:  SUBWF  x86,W
6204:  BZ    620C
6206:  DECFSZ x8D,W
6208:  BRA    620C
620A:  BRA    6232
620C:  MOVF   x8B,W
620E:  SUBWF  x87,W
6210:  BNZ   6218
6212:  MOVF   x8C,W
6214:  SUBWF  x88,W
6216:  BZ    6236
6218:  DECFSZ x8F,W
621A:  BRA    6236
621C:  BRA    6232
621E:  MOVLB  2
6220:  CLRF   x53
6222:  CLRF   x52
6224:  MOVLB  0
6226:  RCALL  5C50
6228:  BTFSC  00.0
622A:  BRA    6230
622C:  MOVLB  1
622E:  BRA    6236
6230:  MOVLB  1
....................         estado_siguiente_maquina_reportes=ST_APERTURA_VALVULA_HUMEDAD; 
6232:  MOVLW  03
6234:  MOVWF  x96
....................      
....................   if (((minutos==0)&&(veces_registro==0))&&(leer_MEM(0)<1022))estado_siguiente_maquina_reportes=ST_REGISTRO_VALORES_HUMEDAD; 
6236:  MOVLB  0
6238:  MOVF   x7A,F
623A:  BNZ   6260
623C:  MOVLB  1
623E:  MOVF   x97,F
6240:  BTFSC  FD8.2
6242:  BRA    6248
6244:  MOVLB  0
6246:  BRA    6260
6248:  BRA    625A
624A:  MOVLB  2
624C:  CLRF   x53
624E:  CLRF   x52
6250:  MOVLB  0
6252:  RCALL  5C50
6254:  BTFSS  00.0
6256:  BRA    6260
6258:  MOVLB  1
625A:  MOVLW  04
625C:  MOVWF  x96
625E:  MOVLB  0
....................   if (minutos!=0) veces_registro=0; 
6260:  MOVF   x7A,F
6262:  BZ    626A
6264:  MOVLB  1
6266:  CLRF   x97
6268:  MOVLB  0
....................   if (((minima[1]!=minima_anterior[1])||(minima[2]!=minima_anterior[2])||(maxima[1]!=maxima_anterior[1])||(maxima[2]!=maxima_anterior[2])) &&(leer_MEM(0)<1022)) 
626A:  MOVF   xA6,W
626C:  SUBWF  x9A,W
626E:  BNZ   62AA
6270:  MOVF   xA7,W
6272:  SUBWF  x9B,W
6274:  BNZ   62AA
6276:  MOVF   xA8,W
6278:  SUBWF  x9C,W
627A:  BNZ   62AA
627C:  MOVF   xA9,W
627E:  SUBWF  x9D,W
6280:  BNZ   62AA
6282:  MOVF   xAC,W
6284:  SUBWF  xA0,W
6286:  BNZ   62AA
6288:  MOVF   xAD,W
628A:  SUBWF  xA1,W
628C:  BNZ   62AA
628E:  MOVF   xAE,W
6290:  SUBWF  xA2,W
6292:  BNZ   62AA
6294:  MOVF   xAF,W
6296:  SUBWF  xA3,W
6298:  BZ    62B2
629A:  BRA    62AA
629C:  MOVLB  2
629E:  CLRF   x53
62A0:  CLRF   x52
62A2:  MOVLB  0
62A4:  RCALL  5C50
62A6:  BTFSS  00.0
62A8:  BRA    62B2
....................         estado_siguiente_maquina_reportes=ST_LIMITES_HUMEDAD; 
62AA:  MOVLW  05
62AC:  MOVLB  1
62AE:  MOVWF  x96
62B0:  MOVLB  0
....................  
....................   if (((((estado_valvula_1_placa_1!=estado_valvula_1_placa_1_anterior) ||(estado_valvula_2_placa_1!=estado_valvula_2_placa_1_anterior))&& 
....................                                                                                              ((tipo_riego_placa_1==3)))|| 
....................         (( (estado_valvula_1_placa_2!=estado_valvula_1_placa_2_anterior)||(estado_valvula_2_placa_2!=estado_valvula_2_placa_2_anterior))&& 
....................                                                                                                ( (tipo_riego_placa_2==3))))&&(leer_MEM(0)<1022)) 
62B2:  MOVLB  1
62B4:  MOVF   x89,W
62B6:  SUBWF  x85,W
62B8:  BNZ   62C0
62BA:  MOVF   x8A,W
62BC:  SUBWF  x86,W
62BE:  BZ    62C6
62C0:  MOVF   x8D,W
62C2:  SUBLW  03
62C4:  BZ    62EE
62C6:  MOVF   x8B,W
62C8:  SUBWF  x87,W
62CA:  BNZ   62D2
62CC:  MOVF   x8C,W
62CE:  SUBWF  x88,W
62D0:  BZ    62F2
62D2:  MOVF   x8F,W
62D4:  SUBLW  03
62D6:  BNZ   62F2
62D8:  BRA    62EE
62DA:  MOVLB  2
62DC:  CLRF   x53
62DE:  CLRF   x52
62E0:  MOVLB  0
62E2:  RCALL  5C50
62E4:  BTFSC  00.0
62E6:  BRA    62EC
62E8:  MOVLB  1
62EA:  BRA    62F2
62EC:  MOVLB  1
....................         estado_siguiente_maquina_reportes=ST_APERTURA_VALVULA_TIEMPO; 
62EE:  MOVLW  06
62F0:  MOVWF  x96
....................  break; 
62F2:  GOTO   7424
....................  case ST_LIMITES_HUMEDAD: 
....................   guardar_MEM(203,(long int)leer_MEM(0)+1); 
62F6:  MOVLB  2
62F8:  CLRF   x53
62FA:  CLRF   x52
62FC:  MOVLB  0
62FE:  RCALL  5C50
6300:  MOVLB  2
6302:  CLRF   x52
6304:  MOVFF  01,251
6308:  MOVLW  01
630A:  ADDWF  x51,F
630C:  MOVLW  00
630E:  ADDWFC x52,F
6310:  MOVLW  CB
6312:  MOVWF  x53
6314:  MOVFF  252,255
6318:  MOVFF  251,254
631C:  MOVLB  0
631E:  RCALL  5D04
....................   guardar_MEM((long int)leer_MEM(0)+1,0); 
6320:  MOVLB  2
6322:  CLRF   x53
6324:  CLRF   x52
6326:  MOVLB  0
6328:  RCALL  5C50
632A:  MOVLB  2
632C:  CLRF   x52
632E:  MOVFF  01,251
6332:  MOVLW  01
6334:  ADDWF  x51,F
6336:  MOVLW  00
6338:  ADDWFC x52,F
633A:  MOVFF  251,253
633E:  CLRF   x55
6340:  CLRF   x54
6342:  MOVLB  0
6344:  RCALL  5D04
....................   if ((espera_placa_uno!=max_espera)) 
6346:  MOVLB  1
6348:  MOVF   xA6,W
634A:  SUBWF  xA4,W
634C:  BZ    63F0
....................   { 
....................    guardar_MEM((byte)minima[1],(long int)leer_MEM(0)+1); 
634E:  MOVLB  2
6350:  CLRF   x53
6352:  CLRF   x52
6354:  MOVLB  0
6356:  RCALL  5C50
6358:  MOVLB  2
635A:  CLRF   x52
635C:  MOVFF  01,251
6360:  MOVLW  01
6362:  ADDWF  x51,F
6364:  MOVLW  00
6366:  ADDWFC x52,F
6368:  MOVFF  9A,253
636C:  MOVFF  252,255
6370:  MOVFF  251,254
6374:  MOVLB  0
6376:  RCALL  5D04
....................    guardar_MEM((long int)leer_MEM(0)+1,0); 
6378:  MOVLB  2
637A:  CLRF   x53
637C:  CLRF   x52
637E:  MOVLB  0
6380:  RCALL  5C50
6382:  MOVLB  2
6384:  CLRF   x52
6386:  MOVFF  01,251
638A:  MOVLW  01
638C:  ADDWF  x51,F
638E:  MOVLW  00
6390:  ADDWFC x52,F
6392:  MOVFF  251,253
6396:  CLRF   x55
6398:  CLRF   x54
639A:  MOVLB  0
639C:  RCALL  5D04
....................    guardar_MEM((byte)maxima[1],(long int)leer_MEM(0)+1); 
639E:  MOVLB  2
63A0:  CLRF   x53
63A2:  CLRF   x52
63A4:  MOVLB  0
63A6:  RCALL  5C50
63A8:  MOVLB  2
63AA:  CLRF   x52
63AC:  MOVFF  01,251
63B0:  MOVLW  01
63B2:  ADDWF  x51,F
63B4:  MOVLW  00
63B6:  ADDWFC x52,F
63B8:  MOVFF  A0,253
63BC:  MOVFF  252,255
63C0:  MOVFF  251,254
63C4:  MOVLB  0
63C6:  RCALL  5D04
....................    guardar_MEM((long int)leer_MEM(0)+1,0); 
63C8:  MOVLB  2
63CA:  CLRF   x53
63CC:  CLRF   x52
63CE:  MOVLB  0
63D0:  RCALL  5C50
63D2:  MOVLB  2
63D4:  CLRF   x52
63D6:  MOVFF  01,251
63DA:  MOVLW  01
63DC:  ADDWF  x51,F
63DE:  MOVLW  00
63E0:  ADDWFC x52,F
63E2:  MOVFF  251,253
63E6:  CLRF   x55
63E8:  CLRF   x54
63EA:  MOVLB  0
63EC:  RCALL  5D04
63EE:  MOVLB  1
....................   } 
....................   if ((espera_placa_dos!=max_espera)) 
63F0:  MOVF   xA6,W
63F2:  SUBWF  xA5,W
63F4:  BZ    649A
....................   { 
....................    guardar_MEM((byte)minima[2],(long int)leer_MEM(0)+1); 
63F6:  MOVLB  2
63F8:  CLRF   x53
63FA:  CLRF   x52
63FC:  MOVLB  0
63FE:  RCALL  5C50
6400:  MOVLB  2
6402:  CLRF   x52
6404:  MOVFF  01,251
6408:  MOVLW  01
640A:  ADDWF  x51,F
640C:  MOVLW  00
640E:  ADDWFC x52,F
6410:  MOVFF  9C,253
6414:  MOVFF  252,255
6418:  MOVFF  251,254
641C:  MOVLB  0
641E:  RCALL  5D04
....................    guardar_MEM((long int)leer_MEM(0)+1,0); 
6420:  MOVLB  2
6422:  CLRF   x53
6424:  CLRF   x52
6426:  MOVLB  0
6428:  RCALL  5C50
642A:  MOVLB  2
642C:  CLRF   x52
642E:  MOVFF  01,251
6432:  MOVLW  01
6434:  ADDWF  x51,F
6436:  MOVLW  00
6438:  ADDWFC x52,F
643A:  MOVFF  251,253
643E:  CLRF   x55
6440:  CLRF   x54
6442:  MOVLB  0
6444:  RCALL  5D04
....................    guardar_MEM((byte)maxima[2],(long int)leer_MEM(0)+1); 
6446:  MOVLB  2
6448:  CLRF   x53
644A:  CLRF   x52
644C:  MOVLB  0
644E:  RCALL  5C50
6450:  MOVLB  2
6452:  CLRF   x52
6454:  MOVFF  01,251
6458:  MOVLW  01
645A:  ADDWF  x51,F
645C:  MOVLW  00
645E:  ADDWFC x52,F
6460:  MOVFF  A2,253
6464:  MOVFF  252,255
6468:  MOVFF  251,254
646C:  MOVLB  0
646E:  RCALL  5D04
....................    guardar_MEM((long int)leer_MEM(0)+1,0); 
6470:  MOVLB  2
6472:  CLRF   x53
6474:  CLRF   x52
6476:  MOVLB  0
6478:  CALL   5C50
647C:  MOVLB  2
647E:  CLRF   x52
6480:  MOVFF  01,251
6484:  MOVLW  01
6486:  ADDWF  x51,F
6488:  MOVLW  00
648A:  ADDWFC x52,F
648C:  MOVFF  251,253
6490:  CLRF   x55
6492:  CLRF   x54
6494:  MOVLB  0
6496:  RCALL  5D04
6498:  MOVLB  1
....................   } 
....................   minima_anterior[1]=minima[1]; 
649A:  MOVFF  9B,A7
649E:  MOVFF  9A,A6
....................   minima_anterior[2]=minima[2]; 
64A2:  MOVFF  9D,A9
64A6:  MOVFF  9C,A8
....................   maxima_anterior[1]=maxima[1]; 
64AA:  MOVFF  A1,AD
64AE:  MOVFF  A0,AC
....................   maxima_anterior[2]=maxima[2]; 
64B2:  MOVFF  A3,AF
64B6:  MOVFF  A2,AE
....................   estado_siguiente_maquina_reportes=ST_REGISTRO_VALORES_HUMEDAD; 
64BA:  MOVLW  04
64BC:  MOVWF  x96
....................  break; 
64BE:  GOTO   7424
....................  case ST_APERTURA_VALVULA_TIEMPO: 
....................    if((((estado_valvula_1_placa_1==1)&&(estado_valvula_1_placa_1!=estado_valvula_1_placa_1_anterior))) || 
....................                     ((estado_valvula_2_placa_1==1)&&(estado_valvula_2_placa_1!=estado_valvula_2_placa_1_anterior))) 
64C2:  MOVLB  1
64C4:  DECFSZ x85,W
64C6:  BRA    64CE
64C8:  MOVF   x89,W
64CA:  SUBWF  x85,W
64CC:  BNZ   64D8
64CE:  DECFSZ x86,W
64D0:  BRA    6538
64D2:  MOVF   x8A,W
64D4:  SUBWF  x86,W
64D6:  BZ    6538
....................    { 
....................     guardar_MEM(230,(long int)leer_MEM(0)+1); 
64D8:  MOVLB  2
64DA:  CLRF   x53
64DC:  CLRF   x52
64DE:  MOVLB  0
64E0:  CALL   5C50
64E4:  MOVLB  2
64E6:  CLRF   x52
64E8:  MOVFF  01,251
64EC:  MOVLW  01
64EE:  ADDWF  x51,F
64F0:  MOVLW  00
64F2:  ADDWFC x52,F
64F4:  MOVLW  E6
64F6:  MOVWF  x53
64F8:  MOVFF  252,255
64FC:  MOVFF  251,254
6500:  MOVLB  0
6502:  RCALL  5D04
....................     guardar_MEM((long int)leer_MEM(0)+1,0); 
6504:  MOVLB  2
6506:  CLRF   x53
6508:  CLRF   x52
650A:  MOVLB  0
650C:  CALL   5C50
6510:  MOVLB  2
6512:  CLRF   x52
6514:  MOVFF  01,251
6518:  MOVLW  01
651A:  ADDWF  x51,F
651C:  MOVLW  00
651E:  ADDWFC x52,F
6520:  MOVFF  251,253
6524:  CLRF   x55
6526:  CLRF   x54
6528:  MOVLB  0
652A:  CALL   5D04
....................     estado_valvula_1_placa_1_anterior=estado_valvula_1_placa_1; 
652E:  MOVFF  185,189
....................     estado_valvula_2_placa_1_anterior=estado_valvula_2_placa_1; 
6532:  MOVFF  186,18A
6536:  MOVLB  1
....................    }  
....................    if(((estado_valvula_1_placa_2==1)&&((estado_valvula_1_placa_2!=estado_valvula_1_placa_2_anterior)))|| 
....................                  (( (estado_valvula_2_placa_2==1))&&(estado_valvula_2_placa_2!=estado_valvula_2_placa_2_anterior))) 
6538:  DECFSZ x87,W
653A:  BRA    6542
653C:  MOVF   x8B,W
653E:  SUBWF  x87,W
6540:  BNZ   654C
6542:  DECFSZ x88,W
6544:  BRA    65AE
6546:  MOVF   x8C,W
6548:  SUBWF  x88,W
654A:  BZ    65AE
....................    { 
....................     guardar_MEM(233,(long int)leer_MEM(0)+1); 
654C:  MOVLB  2
654E:  CLRF   x53
6550:  CLRF   x52
6552:  MOVLB  0
6554:  CALL   5C50
6558:  MOVLB  2
655A:  CLRF   x52
655C:  MOVFF  01,251
6560:  MOVLW  01
6562:  ADDWF  x51,F
6564:  MOVLW  00
6566:  ADDWFC x52,F
6568:  MOVLW  E9
656A:  MOVWF  x53
656C:  MOVFF  252,255
6570:  MOVFF  251,254
6574:  MOVLB  0
6576:  CALL   5D04
....................     guardar_MEM((long int)leer_MEM(0)+1,0); 
657A:  MOVLB  2
657C:  CLRF   x53
657E:  CLRF   x52
6580:  MOVLB  0
6582:  CALL   5C50
6586:  MOVLB  2
6588:  CLRF   x52
658A:  MOVFF  01,251
658E:  MOVLW  01
6590:  ADDWF  x51,F
6592:  MOVLW  00
6594:  ADDWFC x52,F
6596:  MOVFF  251,253
659A:  CLRF   x55
659C:  CLRF   x54
659E:  MOVLB  0
65A0:  CALL   5D04
....................     estado_valvula_1_placa_2_anterior=estado_valvula_1_placa_2; 
65A4:  MOVFF  187,18B
....................     estado_valvula_2_placa_2_anterior=estado_valvula_2_placa_2; 
65A8:  MOVFF  188,18C
65AC:  MOVLB  1
....................    } 
....................    if(((estado_valvula_1_placa_1==0)&&(estado_valvula_1_placa_1!=estado_valvula_1_placa_1_anterior))) 
65AE:  MOVF   x85,F
65B0:  BNZ   6616
65B2:  MOVF   x89,W
65B4:  SUBWF  x85,W
65B6:  BZ    6616
....................    { 
....................     guardar_MEM(231,(long int)leer_MEM(0)+1); 
65B8:  MOVLB  2
65BA:  CLRF   x53
65BC:  CLRF   x52
65BE:  MOVLB  0
65C0:  CALL   5C50
65C4:  MOVLB  2
65C6:  CLRF   x52
65C8:  MOVFF  01,251
65CC:  MOVLW  01
65CE:  ADDWF  x51,F
65D0:  MOVLW  00
65D2:  ADDWFC x52,F
65D4:  MOVLW  E7
65D6:  MOVWF  x53
65D8:  MOVFF  252,255
65DC:  MOVFF  251,254
65E0:  MOVLB  0
65E2:  CALL   5D04
....................     guardar_MEM((long int)leer_MEM(0)+1,0); 
65E6:  MOVLB  2
65E8:  CLRF   x53
65EA:  CLRF   x52
65EC:  MOVLB  0
65EE:  CALL   5C50
65F2:  MOVLB  2
65F4:  CLRF   x52
65F6:  MOVFF  01,251
65FA:  MOVLW  01
65FC:  ADDWF  x51,F
65FE:  MOVLW  00
6600:  ADDWFC x52,F
6602:  MOVFF  251,253
6606:  CLRF   x55
6608:  CLRF   x54
660A:  MOVLB  0
660C:  CALL   5D04
....................     estado_valvula_1_placa_1_anterior=estado_valvula_1_placa_1; 
6610:  MOVFF  185,189
6614:  MOVLB  1
....................    } 
....................    if (((estado_valvula_2_placa_1==0))&&(estado_valvula_2_placa_1!=estado_valvula_2_placa_1_anterior)) 
6616:  MOVF   x86,F
6618:  BNZ   667E
661A:  MOVF   x8A,W
661C:  SUBWF  x86,W
661E:  BZ    667E
....................    { 
....................     guardar_MEM(232,(long int)leer_MEM(0)+1); 
6620:  MOVLB  2
6622:  CLRF   x53
6624:  CLRF   x52
6626:  MOVLB  0
6628:  CALL   5C50
662C:  MOVLB  2
662E:  CLRF   x52
6630:  MOVFF  01,251
6634:  MOVLW  01
6636:  ADDWF  x51,F
6638:  MOVLW  00
663A:  ADDWFC x52,F
663C:  MOVLW  E8
663E:  MOVWF  x53
6640:  MOVFF  252,255
6644:  MOVFF  251,254
6648:  MOVLB  0
664A:  CALL   5D04
....................     guardar_MEM((long int)leer_MEM(0)+1,0); 
664E:  MOVLB  2
6650:  CLRF   x53
6652:  CLRF   x52
6654:  MOVLB  0
6656:  CALL   5C50
665A:  MOVLB  2
665C:  CLRF   x52
665E:  MOVFF  01,251
6662:  MOVLW  01
6664:  ADDWF  x51,F
6666:  MOVLW  00
6668:  ADDWFC x52,F
666A:  MOVFF  251,253
666E:  CLRF   x55
6670:  CLRF   x54
6672:  MOVLB  0
6674:  CALL   5D04
....................     estado_valvula_2_placa_1_anterior=estado_valvula_2_placa_1; 
6678:  MOVFF  186,18A
667C:  MOVLB  1
....................    } 
....................    if((estado_valvula_1_placa_2==0)&&(estado_valvula_1_placa_2!=estado_valvula_1_placa_2_anterior)) 
667E:  MOVF   x87,F
6680:  BNZ   66E6
6682:  MOVF   x8B,W
6684:  SUBWF  x87,W
6686:  BZ    66E6
....................    { 
....................     guardar_MEM(234,(long int)leer_MEM(0)+1); 
6688:  MOVLB  2
668A:  CLRF   x53
668C:  CLRF   x52
668E:  MOVLB  0
6690:  CALL   5C50
6694:  MOVLB  2
6696:  CLRF   x52
6698:  MOVFF  01,251
669C:  MOVLW  01
669E:  ADDWF  x51,F
66A0:  MOVLW  00
66A2:  ADDWFC x52,F
66A4:  MOVLW  EA
66A6:  MOVWF  x53
66A8:  MOVFF  252,255
66AC:  MOVFF  251,254
66B0:  MOVLB  0
66B2:  CALL   5D04
....................     guardar_MEM((long int)leer_MEM(0)+1,0); 
66B6:  MOVLB  2
66B8:  CLRF   x53
66BA:  CLRF   x52
66BC:  MOVLB  0
66BE:  CALL   5C50
66C2:  MOVLB  2
66C4:  CLRF   x52
66C6:  MOVFF  01,251
66CA:  MOVLW  01
66CC:  ADDWF  x51,F
66CE:  MOVLW  00
66D0:  ADDWFC x52,F
66D2:  MOVFF  251,253
66D6:  CLRF   x55
66D8:  CLRF   x54
66DA:  MOVLB  0
66DC:  CALL   5D04
....................     estado_valvula_1_placa_2_anterior=estado_valvula_1_placa_2; 
66E0:  MOVFF  187,18B
66E4:  MOVLB  1
....................    } 
....................    if ((estado_valvula_2_placa_2==0)&&(estado_valvula_2_placa_2!=estado_valvula_2_placa_2_anterior)) 
66E6:  MOVF   x88,F
66E8:  BNZ   674C
66EA:  MOVF   x8C,W
66EC:  SUBWF  x88,W
66EE:  BZ    674C
....................    { 
....................     guardar_MEM(235,(long int)leer_MEM(0)+1); 
66F0:  MOVLB  2
66F2:  CLRF   x53
66F4:  CLRF   x52
66F6:  MOVLB  0
66F8:  CALL   5C50
66FC:  MOVLB  2
66FE:  CLRF   x52
6700:  MOVFF  01,251
6704:  MOVLW  01
6706:  ADDWF  x51,F
6708:  MOVLW  00
670A:  ADDWFC x52,F
670C:  MOVLW  EB
670E:  MOVWF  x53
6710:  MOVFF  252,255
6714:  MOVFF  251,254
6718:  MOVLB  0
671A:  CALL   5D04
....................     guardar_MEM((long int)leer_MEM(0)+1,0); 
671E:  MOVLB  2
6720:  CLRF   x53
6722:  CLRF   x52
6724:  MOVLB  0
6726:  CALL   5C50
672A:  MOVLB  2
672C:  CLRF   x52
672E:  MOVFF  01,251
6732:  MOVLW  01
6734:  ADDWF  x51,F
6736:  MOVLW  00
6738:  ADDWFC x52,F
673A:  MOVFF  251,253
673E:  CLRF   x55
6740:  CLRF   x54
6742:  MOVLB  0
6744:  CALL   5D04
....................     estado_valvula_2_placa_2_anterior=estado_valvula_2_placa_2; 
6748:  MOVFF  188,18C
....................    } 
....................    guardar_MEM((byte)hora,(long int)leer_MEM(0)+1); 
674C:  MOVLB  2
674E:  CLRF   x53
6750:  CLRF   x52
6752:  MOVLB  0
6754:  CALL   5C50
6758:  MOVLB  2
675A:  CLRF   x52
675C:  MOVFF  01,251
6760:  MOVLW  01
6762:  ADDWF  x51,F
6764:  MOVLW  00
6766:  ADDWFC x52,F
6768:  MOVFF  7B,253
676C:  MOVFF  252,255
6770:  MOVFF  251,254
6774:  MOVLB  0
6776:  CALL   5D04
....................    guardar_MEM((long int)leer_MEM(0)+1,0); 
677A:  MOVLB  2
677C:  CLRF   x53
677E:  CLRF   x52
6780:  MOVLB  0
6782:  CALL   5C50
6786:  MOVLB  2
6788:  CLRF   x52
678A:  MOVFF  01,251
678E:  MOVLW  01
6790:  ADDWF  x51,F
6792:  MOVLW  00
6794:  ADDWFC x52,F
6796:  MOVFF  251,253
679A:  CLRF   x55
679C:  CLRF   x54
679E:  MOVLB  0
67A0:  CALL   5D04
....................    guardar_MEM((byte)minutos,(long int)leer_MEM(0)+1); 
67A4:  MOVLB  2
67A6:  CLRF   x53
67A8:  CLRF   x52
67AA:  MOVLB  0
67AC:  CALL   5C50
67B0:  MOVLB  2
67B2:  CLRF   x52
67B4:  MOVFF  01,251
67B8:  MOVLW  01
67BA:  ADDWF  x51,F
67BC:  MOVLW  00
67BE:  ADDWFC x52,F
67C0:  MOVFF  7A,253
67C4:  MOVFF  252,255
67C8:  MOVFF  251,254
67CC:  MOVLB  0
67CE:  CALL   5D04
....................    guardar_MEM((long int)leer_MEM(0)+1,0); 
67D2:  MOVLB  2
67D4:  CLRF   x53
67D6:  CLRF   x52
67D8:  MOVLB  0
67DA:  CALL   5C50
67DE:  MOVLB  2
67E0:  CLRF   x52
67E2:  MOVFF  01,251
67E6:  MOVLW  01
67E8:  ADDWF  x51,F
67EA:  MOVLW  00
67EC:  ADDWFC x52,F
67EE:  MOVFF  251,253
67F2:  CLRF   x55
67F4:  CLRF   x54
67F6:  MOVLB  0
67F8:  CALL   5D04
....................    estado_siguiente_maquina_reportes=ST_ACTIVO; 
67FC:  MOVLW  01
67FE:  MOVLB  1
6800:  MOVWF  x96
....................  break; 
6802:  GOTO   7424
....................  case ST_REGISTRO_VALORES_HUMEDAD: 
....................   if ((valor_humedad_uno[1]!=0)&&(valor_humedad_dos[1]!=0))  humedad_valvula_uno_placa_uno=((valor_humedad_uno[1]+valor_humedad_dos[1])/2); 
6806:  MOVF   x82,F
6808:  BNZ   680E
680A:  MOVF   x83,F
680C:  BZ    6836
680E:  MOVF   x88,F
6810:  BNZ   6816
6812:  MOVF   x89,F
6814:  BZ    6836
6816:  MOVF   x88,W
6818:  ADDWF  x82,W
681A:  MOVLB  2
681C:  MOVWF  x51
681E:  MOVLB  0
6820:  MOVF   x89,W
6822:  ADDWFC x83,W
6824:  MOVLB  2
6826:  MOVWF  x52
6828:  BCF    FD8.0
682A:  RRCF   x52,W
682C:  RRCF   x51,W
682E:  MOVLB  1
6830:  MOVWF  x98
....................         else if(valor_humedad_uno[1]==0) humedad_valvula_uno_placa_uno=valor_humedad_dos[1]; 
6832:  BRA    6850
6834:  MOVLB  0
6836:  MOVF   x82,F
6838:  BNZ   6844
683A:  MOVF   x83,F
683C:  BNZ   6844
683E:  MOVFF  88,198
....................            else if(valor_humedad_dos[1]==0) humedad_valvula_uno_placa_uno=valor_humedad_uno[1]; 
6842:  BRA    6850
6844:  MOVF   x88,F
6846:  BNZ   6850
6848:  MOVF   x89,F
684A:  BNZ   6850
684C:  MOVFF  82,198
....................    
....................   if ((valor_humedad_tres[1]!=0)&&(valor_humedad_cuatro[1]!=0))  humedad_valvula_dos_placa_uno=((valor_humedad_tres[1]+valor_humedad_cuatro[1])/2); 
6850:  MOVLB  0
6852:  MOVF   x8E,F
6854:  BNZ   685A
6856:  MOVF   x8F,F
6858:  BZ    6882
685A:  MOVF   x94,F
685C:  BNZ   6862
685E:  MOVF   x95,F
6860:  BZ    6882
6862:  MOVF   x94,W
6864:  ADDWF  x8E,W
6866:  MOVLB  2
6868:  MOVWF  x51
686A:  MOVLB  0
686C:  MOVF   x95,W
686E:  ADDWFC x8F,W
6870:  MOVLB  2
6872:  MOVWF  x52
6874:  BCF    FD8.0
6876:  RRCF   x52,W
6878:  RRCF   x51,W
687A:  MOVLB  1
687C:  MOVWF  x99
....................         else if(valor_humedad_tres[1]==0) humedad_valvula_dos_placa_uno=valor_humedad_cuatro[1]; 
687E:  BRA    689C
6880:  MOVLB  0
6882:  MOVF   x8E,F
6884:  BNZ   6890
6886:  MOVF   x8F,F
6888:  BNZ   6890
688A:  MOVFF  94,199
....................            else if(valor_humedad_cuatro[1]==0) humedad_valvula_dos_placa_uno=valor_humedad_tres[1]; 
688E:  BRA    689C
6890:  MOVF   x94,F
6892:  BNZ   689C
6894:  MOVF   x95,F
6896:  BNZ   689C
6898:  MOVFF  8E,199
....................   
....................   if ((valor_humedad_uno[2]!=0)&&(valor_humedad_dos[2]!=0))  humedad_valvula_uno_placa_dos=((valor_humedad_uno[2]+valor_humedad_dos[2])/2); 
689C:  MOVLB  0
689E:  MOVF   x84,F
68A0:  BNZ   68A6
68A2:  MOVF   x85,F
68A4:  BZ    68CE
68A6:  MOVF   x8A,F
68A8:  BNZ   68AE
68AA:  MOVF   x8B,F
68AC:  BZ    68CE
68AE:  MOVF   x8A,W
68B0:  ADDWF  x84,W
68B2:  MOVLB  2
68B4:  MOVWF  x51
68B6:  MOVLB  0
68B8:  MOVF   x8B,W
68BA:  ADDWFC x85,W
68BC:  MOVLB  2
68BE:  MOVWF  x52
68C0:  BCF    FD8.0
68C2:  RRCF   x52,W
68C4:  RRCF   x51,W
68C6:  MOVLB  1
68C8:  MOVWF  x9A
....................         else if(valor_humedad_uno[2]==0) humedad_valvula_uno_placa_dos=valor_humedad_dos[2]; 
68CA:  BRA    68E8
68CC:  MOVLB  0
68CE:  MOVF   x84,F
68D0:  BNZ   68DC
68D2:  MOVF   x85,F
68D4:  BNZ   68DC
68D6:  MOVFF  8A,19A
....................            else if(valor_humedad_dos[2]==0) humedad_valvula_uno_placa_dos=valor_humedad_uno[2]; 
68DA:  BRA    68E8
68DC:  MOVF   x8A,F
68DE:  BNZ   68E8
68E0:  MOVF   x8B,F
68E2:  BNZ   68E8
68E4:  MOVFF  84,19A
....................  
....................   if ((valor_humedad_tres[2]!=0)&&(valor_humedad_cuatro[2]!=0))  humedad_valvula_dos_placa_dos=((valor_humedad_tres[2]+valor_humedad_cuatro[2])/2); 
68E8:  MOVLB  0
68EA:  MOVF   x90,F
68EC:  BNZ   68F2
68EE:  MOVF   x91,F
68F0:  BZ    691A
68F2:  MOVF   x96,F
68F4:  BNZ   68FA
68F6:  MOVF   x97,F
68F8:  BZ    691A
68FA:  MOVF   x96,W
68FC:  ADDWF  x90,W
68FE:  MOVLB  2
6900:  MOVWF  x51
6902:  MOVLB  0
6904:  MOVF   x97,W
6906:  ADDWFC x91,W
6908:  MOVLB  2
690A:  MOVWF  x52
690C:  BCF    FD8.0
690E:  RRCF   x52,W
6910:  RRCF   x51,W
6912:  MOVLB  1
6914:  MOVWF  x9B
....................         else if(valor_humedad_tres[2]==0) humedad_valvula_dos_placa_dos=valor_humedad_cuatro[2]; 
6916:  BRA    6934
6918:  MOVLB  0
691A:  MOVF   x90,F
691C:  BNZ   6928
691E:  MOVF   x91,F
6920:  BNZ   6928
6922:  MOVFF  96,19B
....................            else if(valor_humedad_cuatro[2]==0) humedad_valvula_dos_placa_dos=valor_humedad_tres[2]; 
6926:  BRA    6934
6928:  MOVF   x96,F
692A:  BNZ   6934
692C:  MOVF   x97,F
692E:  BNZ   6934
6930:  MOVFF  90,19B
....................   guardar_MEM(202,(long int)leer_MEM(0)+1); 
6934:  MOVLB  2
6936:  CLRF   x53
6938:  CLRF   x52
693A:  MOVLB  0
693C:  CALL   5C50
6940:  MOVLB  2
6942:  CLRF   x52
6944:  MOVFF  01,251
6948:  MOVLW  01
694A:  ADDWF  x51,F
694C:  MOVLW  00
694E:  ADDWFC x52,F
6950:  MOVLW  CA
6952:  MOVWF  x53
6954:  MOVFF  252,255
6958:  MOVFF  251,254
695C:  MOVLB  0
695E:  CALL   5D04
....................   guardar_MEM((long int)leer_MEM(0)+1,0); 
6962:  MOVLB  2
6964:  CLRF   x53
6966:  CLRF   x52
6968:  MOVLB  0
696A:  CALL   5C50
696E:  MOVLB  2
6970:  CLRF   x52
6972:  MOVFF  01,251
6976:  MOVLW  01
6978:  ADDWF  x51,F
697A:  MOVLW  00
697C:  ADDWFC x52,F
697E:  MOVFF  251,253
6982:  CLRF   x55
6984:  CLRF   x54
6986:  MOVLB  0
6988:  CALL   5D04
....................   if ((espera_placa_uno!=max_espera)) 
698C:  MOVLB  1
698E:  MOVF   xA6,W
6990:  SUBWF  xA4,W
6992:  BZ    6A46
....................   { 
....................    guardar_MEM((byte)humedad_valvula_uno_placa_uno,(long int)leer_MEM(0)+1); 
6994:  MOVLB  2
6996:  CLRF   x53
6998:  CLRF   x52
699A:  MOVLB  0
699C:  CALL   5C50
69A0:  MOVLB  2
69A2:  CLRF   x52
69A4:  MOVFF  01,251
69A8:  MOVLW  01
69AA:  ADDWF  x51,F
69AC:  MOVLW  00
69AE:  ADDWFC x52,F
69B0:  MOVFF  198,253
69B4:  MOVFF  252,255
69B8:  MOVFF  251,254
69BC:  MOVLB  0
69BE:  CALL   5D04
....................    guardar_MEM((long int)leer_MEM(0)+1,0); 
69C2:  MOVLB  2
69C4:  CLRF   x53
69C6:  CLRF   x52
69C8:  MOVLB  0
69CA:  CALL   5C50
69CE:  MOVLB  2
69D0:  CLRF   x52
69D2:  MOVFF  01,251
69D6:  MOVLW  01
69D8:  ADDWF  x51,F
69DA:  MOVLW  00
69DC:  ADDWFC x52,F
69DE:  MOVFF  251,253
69E2:  CLRF   x55
69E4:  CLRF   x54
69E6:  MOVLB  0
69E8:  CALL   5D04
....................    guardar_MEM((byte)humedad_valvula_dos_placa_uno,(long int)leer_MEM(0)+1); 
69EC:  MOVLB  2
69EE:  CLRF   x53
69F0:  CLRF   x52
69F2:  MOVLB  0
69F4:  CALL   5C50
69F8:  MOVLB  2
69FA:  CLRF   x52
69FC:  MOVFF  01,251
6A00:  MOVLW  01
6A02:  ADDWF  x51,F
6A04:  MOVLW  00
6A06:  ADDWFC x52,F
6A08:  MOVFF  199,253
6A0C:  MOVFF  252,255
6A10:  MOVFF  251,254
6A14:  MOVLB  0
6A16:  CALL   5D04
....................    guardar_MEM((long int)leer_MEM(0)+1,0); 
6A1A:  MOVLB  2
6A1C:  CLRF   x53
6A1E:  CLRF   x52
6A20:  MOVLB  0
6A22:  CALL   5C50
6A26:  MOVLB  2
6A28:  CLRF   x52
6A2A:  MOVFF  01,251
6A2E:  MOVLW  01
6A30:  ADDWF  x51,F
6A32:  MOVLW  00
6A34:  ADDWFC x52,F
6A36:  MOVFF  251,253
6A3A:  CLRF   x55
6A3C:  CLRF   x54
6A3E:  MOVLB  0
6A40:  CALL   5D04
6A44:  MOVLB  1
....................   } 
....................   if ((espera_placa_dos!=max_espera)) 
6A46:  MOVF   xA6,W
6A48:  SUBWF  xA5,W
6A4A:  BZ    6AFE
....................   { 
....................    guardar_MEM((byte) humedad_valvula_uno_placa_dos,(long int)leer_MEM(0)+1); 
6A4C:  MOVLB  2
6A4E:  CLRF   x53
6A50:  CLRF   x52
6A52:  MOVLB  0
6A54:  CALL   5C50
6A58:  MOVLB  2
6A5A:  CLRF   x52
6A5C:  MOVFF  01,251
6A60:  MOVLW  01
6A62:  ADDWF  x51,F
6A64:  MOVLW  00
6A66:  ADDWFC x52,F
6A68:  MOVFF  19A,253
6A6C:  MOVFF  252,255
6A70:  MOVFF  251,254
6A74:  MOVLB  0
6A76:  CALL   5D04
....................    guardar_MEM((long int)leer_MEM(0)+1,0); 
6A7A:  MOVLB  2
6A7C:  CLRF   x53
6A7E:  CLRF   x52
6A80:  MOVLB  0
6A82:  CALL   5C50
6A86:  MOVLB  2
6A88:  CLRF   x52
6A8A:  MOVFF  01,251
6A8E:  MOVLW  01
6A90:  ADDWF  x51,F
6A92:  MOVLW  00
6A94:  ADDWFC x52,F
6A96:  MOVFF  251,253
6A9A:  CLRF   x55
6A9C:  CLRF   x54
6A9E:  MOVLB  0
6AA0:  CALL   5D04
....................    guardar_MEM((byte)humedad_valvula_dos_placa_dos,(long int)leer_MEM(0)+1); 
6AA4:  MOVLB  2
6AA6:  CLRF   x53
6AA8:  CLRF   x52
6AAA:  MOVLB  0
6AAC:  CALL   5C50
6AB0:  MOVLB  2
6AB2:  CLRF   x52
6AB4:  MOVFF  01,251
6AB8:  MOVLW  01
6ABA:  ADDWF  x51,F
6ABC:  MOVLW  00
6ABE:  ADDWFC x52,F
6AC0:  MOVFF  19B,253
6AC4:  MOVFF  252,255
6AC8:  MOVFF  251,254
6ACC:  MOVLB  0
6ACE:  CALL   5D04
....................    guardar_MEM((long int)leer_MEM(0)+1,0); 
6AD2:  MOVLB  2
6AD4:  CLRF   x53
6AD6:  CLRF   x52
6AD8:  MOVLB  0
6ADA:  CALL   5C50
6ADE:  MOVLB  2
6AE0:  CLRF   x52
6AE2:  MOVFF  01,251
6AE6:  MOVLW  01
6AE8:  ADDWF  x51,F
6AEA:  MOVLW  00
6AEC:  ADDWFC x52,F
6AEE:  MOVFF  251,253
6AF2:  CLRF   x55
6AF4:  CLRF   x54
6AF6:  MOVLB  0
6AF8:  CALL   5D04
6AFC:  MOVLB  1
....................   } 
....................   estado_siguiente_maquina_reportes=ST_APERTURA_VALVULA_HUMEDAD; 
6AFE:  MOVLW  03
6B00:  MOVWF  x96
....................   veces_registro=1; 
6B02:  MOVLW  01
6B04:  MOVWF  x97
....................  break; 
6B06:  GOTO   7424
....................  case ST_APERTURA_VALVULA_HUMEDAD: 
....................   if((estado_valvula_1_placa_1==1) &&((estado_valvula_1_placa_1!=estado_valvula_1_placa_1_anterior)||(inicializacion_1==1))) 
6B0A:  MOVLB  1
6B0C:  DECFSZ x85,W
6B0E:  BRA    6B78
6B10:  MOVF   x89,W
6B12:  SUBWF  x85,W
6B14:  BNZ   6B1A
6B16:  DECFSZ xA7,W
6B18:  BRA    6B78
....................   { 
....................    guardar_MEM(220,(long int)leer_MEM(0)+1); 
6B1A:  MOVLB  2
6B1C:  CLRF   x53
6B1E:  CLRF   x52
6B20:  MOVLB  0
6B22:  CALL   5C50
6B26:  MOVLB  2
6B28:  CLRF   x52
6B2A:  MOVFF  01,251
6B2E:  MOVLW  01
6B30:  ADDWF  x51,F
6B32:  MOVLW  00
6B34:  ADDWFC x52,F
6B36:  MOVLW  DC
6B38:  MOVWF  x53
6B3A:  MOVFF  252,255
6B3E:  MOVFF  251,254
6B42:  MOVLB  0
6B44:  CALL   5D04
....................    guardar_MEM((long int)leer_MEM(0)+1,0); 
6B48:  MOVLB  2
6B4A:  CLRF   x53
6B4C:  CLRF   x52
6B4E:  MOVLB  0
6B50:  CALL   5C50
6B54:  MOVLB  2
6B56:  CLRF   x52
6B58:  MOVFF  01,251
6B5C:  MOVLW  01
6B5E:  ADDWF  x51,F
6B60:  MOVLW  00
6B62:  ADDWFC x52,F
6B64:  MOVFF  251,253
6B68:  CLRF   x55
6B6A:  CLRF   x54
6B6C:  MOVLB  0
6B6E:  CALL   5D04
....................    estado_valvula_1_placa_1_anterior=estado_valvula_1_placa_1; 
6B72:  MOVFF  185,189
6B76:  MOVLB  1
....................   } 
....................   if((estado_valvula_1_placa_1==0) &&((estado_valvula_1_placa_1!=estado_valvula_1_placa_1_anterior)||(inicializacion_1==1))) 
6B78:  MOVF   x85,F
6B7A:  BNZ   6BE4
6B7C:  MOVF   x89,W
6B7E:  SUBWF  x85,W
6B80:  BNZ   6B86
6B82:  DECFSZ xA7,W
6B84:  BRA    6BE4
....................   { 
....................    guardar_MEM(221,(long int)leer_MEM(0)+1); 
6B86:  MOVLB  2
6B88:  CLRF   x53
6B8A:  CLRF   x52
6B8C:  MOVLB  0
6B8E:  CALL   5C50
6B92:  MOVLB  2
6B94:  CLRF   x52
6B96:  MOVFF  01,251
6B9A:  MOVLW  01
6B9C:  ADDWF  x51,F
6B9E:  MOVLW  00
6BA0:  ADDWFC x52,F
6BA2:  MOVLW  DD
6BA4:  MOVWF  x53
6BA6:  MOVFF  252,255
6BAA:  MOVFF  251,254
6BAE:  MOVLB  0
6BB0:  CALL   5D04
....................    guardar_MEM((long int)leer_MEM(0)+1,0); 
6BB4:  MOVLB  2
6BB6:  CLRF   x53
6BB8:  CLRF   x52
6BBA:  MOVLB  0
6BBC:  CALL   5C50
6BC0:  MOVLB  2
6BC2:  CLRF   x52
6BC4:  MOVFF  01,251
6BC8:  MOVLW  01
6BCA:  ADDWF  x51,F
6BCC:  MOVLW  00
6BCE:  ADDWFC x52,F
6BD0:  MOVFF  251,253
6BD4:  CLRF   x55
6BD6:  CLRF   x54
6BD8:  MOVLB  0
6BDA:  CALL   5D04
....................    estado_valvula_1_placa_1_anterior=estado_valvula_1_placa_1; 
6BDE:  MOVFF  185,189
6BE2:  MOVLB  1
....................   } 
....................   if((estado_valvula_2_placa_1==1) &&((estado_valvula_2_placa_1!=estado_valvula_2_placa_1_anterior)||(inicializacion_1==1))) 
6BE4:  DECFSZ x86,W
6BE6:  BRA    6C50
6BE8:  MOVF   x8A,W
6BEA:  SUBWF  x86,W
6BEC:  BNZ   6BF2
6BEE:  DECFSZ xA7,W
6BF0:  BRA    6C50
....................   { 
....................    guardar_MEM(222,(long int)leer_MEM(0)+1); 
6BF2:  MOVLB  2
6BF4:  CLRF   x53
6BF6:  CLRF   x52
6BF8:  MOVLB  0
6BFA:  CALL   5C50
6BFE:  MOVLB  2
6C00:  CLRF   x52
6C02:  MOVFF  01,251
6C06:  MOVLW  01
6C08:  ADDWF  x51,F
6C0A:  MOVLW  00
6C0C:  ADDWFC x52,F
6C0E:  MOVLW  DE
6C10:  MOVWF  x53
6C12:  MOVFF  252,255
6C16:  MOVFF  251,254
6C1A:  MOVLB  0
6C1C:  CALL   5D04
....................    guardar_MEM((long int)leer_MEM(0)+1,0); 
6C20:  MOVLB  2
6C22:  CLRF   x53
6C24:  CLRF   x52
6C26:  MOVLB  0
6C28:  CALL   5C50
6C2C:  MOVLB  2
6C2E:  CLRF   x52
6C30:  MOVFF  01,251
6C34:  MOVLW  01
6C36:  ADDWF  x51,F
6C38:  MOVLW  00
6C3A:  ADDWFC x52,F
6C3C:  MOVFF  251,253
6C40:  CLRF   x55
6C42:  CLRF   x54
6C44:  MOVLB  0
6C46:  CALL   5D04
....................    estado_valvula_2_placa_1_anterior=estado_valvula_2_placa_1; 
6C4A:  MOVFF  186,18A
6C4E:  MOVLB  1
....................   } 
....................   if((estado_valvula_2_placa_1==0)&&((estado_valvula_2_placa_1!=estado_valvula_2_placa_1_anterior)||(inicializacion_1==1))) 
6C50:  MOVF   x86,F
6C52:  BNZ   6CBC
6C54:  MOVF   x8A,W
6C56:  SUBWF  x86,W
6C58:  BNZ   6C5E
6C5A:  DECFSZ xA7,W
6C5C:  BRA    6CBC
....................   { 
....................    guardar_MEM(223,(long int)leer_MEM(0)+1); 
6C5E:  MOVLB  2
6C60:  CLRF   x53
6C62:  CLRF   x52
6C64:  MOVLB  0
6C66:  CALL   5C50
6C6A:  MOVLB  2
6C6C:  CLRF   x52
6C6E:  MOVFF  01,251
6C72:  MOVLW  01
6C74:  ADDWF  x51,F
6C76:  MOVLW  00
6C78:  ADDWFC x52,F
6C7A:  MOVLW  DF
6C7C:  MOVWF  x53
6C7E:  MOVFF  252,255
6C82:  MOVFF  251,254
6C86:  MOVLB  0
6C88:  CALL   5D04
....................    guardar_MEM((long int)leer_MEM(0)+1,0); 
6C8C:  MOVLB  2
6C8E:  CLRF   x53
6C90:  CLRF   x52
6C92:  MOVLB  0
6C94:  CALL   5C50
6C98:  MOVLB  2
6C9A:  CLRF   x52
6C9C:  MOVFF  01,251
6CA0:  MOVLW  01
6CA2:  ADDWF  x51,F
6CA4:  MOVLW  00
6CA6:  ADDWFC x52,F
6CA8:  MOVFF  251,253
6CAC:  CLRF   x55
6CAE:  CLRF   x54
6CB0:  MOVLB  0
6CB2:  CALL   5D04
....................    estado_valvula_2_placa_1_anterior=estado_valvula_2_placa_1; 
6CB6:  MOVFF  186,18A
6CBA:  MOVLB  1
....................   } 
....................   if((estado_valvula_1_placa_2==1)&&((estado_valvula_1_placa_2!=estado_valvula_1_placa_2_anterior)||(inicializacion_2==1))) 
6CBC:  DECFSZ x87,W
6CBE:  BRA    6D28
6CC0:  MOVF   x8B,W
6CC2:  SUBWF  x87,W
6CC4:  BNZ   6CCA
6CC6:  DECFSZ xA8,W
6CC8:  BRA    6D28
....................   { 
....................    guardar_MEM(224,(long int)leer_MEM(0)+1); 
6CCA:  MOVLB  2
6CCC:  CLRF   x53
6CCE:  CLRF   x52
6CD0:  MOVLB  0
6CD2:  CALL   5C50
6CD6:  MOVLB  2
6CD8:  CLRF   x52
6CDA:  MOVFF  01,251
6CDE:  MOVLW  01
6CE0:  ADDWF  x51,F
6CE2:  MOVLW  00
6CE4:  ADDWFC x52,F
6CE6:  MOVLW  E0
6CE8:  MOVWF  x53
6CEA:  MOVFF  252,255
6CEE:  MOVFF  251,254
6CF2:  MOVLB  0
6CF4:  CALL   5D04
....................    guardar_MEM((long int)leer_MEM(0)+1,0); 
6CF8:  MOVLB  2
6CFA:  CLRF   x53
6CFC:  CLRF   x52
6CFE:  MOVLB  0
6D00:  CALL   5C50
6D04:  MOVLB  2
6D06:  CLRF   x52
6D08:  MOVFF  01,251
6D0C:  MOVLW  01
6D0E:  ADDWF  x51,F
6D10:  MOVLW  00
6D12:  ADDWFC x52,F
6D14:  MOVFF  251,253
6D18:  CLRF   x55
6D1A:  CLRF   x54
6D1C:  MOVLB  0
6D1E:  CALL   5D04
....................    estado_valvula_1_placa_2_anterior=estado_valvula_1_placa_2; 
6D22:  MOVFF  187,18B
6D26:  MOVLB  1
....................   } 
....................   if((estado_valvula_1_placa_2==0)&&((estado_valvula_1_placa_2!=estado_valvula_1_placa_2_anterior)||(inicializacion_2==1))) 
6D28:  MOVF   x87,F
6D2A:  BNZ   6D94
6D2C:  MOVF   x8B,W
6D2E:  SUBWF  x87,W
6D30:  BNZ   6D36
6D32:  DECFSZ xA8,W
6D34:  BRA    6D94
....................   { 
....................    guardar_MEM(225,(long int)leer_MEM(0)+1); 
6D36:  MOVLB  2
6D38:  CLRF   x53
6D3A:  CLRF   x52
6D3C:  MOVLB  0
6D3E:  CALL   5C50
6D42:  MOVLB  2
6D44:  CLRF   x52
6D46:  MOVFF  01,251
6D4A:  MOVLW  01
6D4C:  ADDWF  x51,F
6D4E:  MOVLW  00
6D50:  ADDWFC x52,F
6D52:  MOVLW  E1
6D54:  MOVWF  x53
6D56:  MOVFF  252,255
6D5A:  MOVFF  251,254
6D5E:  MOVLB  0
6D60:  CALL   5D04
....................    guardar_MEM((long int)leer_MEM(0)+1,0); 
6D64:  MOVLB  2
6D66:  CLRF   x53
6D68:  CLRF   x52
6D6A:  MOVLB  0
6D6C:  CALL   5C50
6D70:  MOVLB  2
6D72:  CLRF   x52
6D74:  MOVFF  01,251
6D78:  MOVLW  01
6D7A:  ADDWF  x51,F
6D7C:  MOVLW  00
6D7E:  ADDWFC x52,F
6D80:  MOVFF  251,253
6D84:  CLRF   x55
6D86:  CLRF   x54
6D88:  MOVLB  0
6D8A:  CALL   5D04
....................    estado_valvula_1_placa_2_anterior=estado_valvula_1_placa_2; 
6D8E:  MOVFF  187,18B
6D92:  MOVLB  1
....................   } 
....................   if((estado_valvula_2_placa_2==1)&&((estado_valvula_2_placa_2!=estado_valvula_2_placa_2_anterior)||(inicializacion_2==1))) 
6D94:  DECFSZ x88,W
6D96:  BRA    6E00
6D98:  MOVF   x8C,W
6D9A:  SUBWF  x88,W
6D9C:  BNZ   6DA2
6D9E:  DECFSZ xA8,W
6DA0:  BRA    6E00
....................   { 
....................    guardar_MEM(226,(long int)leer_MEM(0)+1); 
6DA2:  MOVLB  2
6DA4:  CLRF   x53
6DA6:  CLRF   x52
6DA8:  MOVLB  0
6DAA:  CALL   5C50
6DAE:  MOVLB  2
6DB0:  CLRF   x52
6DB2:  MOVFF  01,251
6DB6:  MOVLW  01
6DB8:  ADDWF  x51,F
6DBA:  MOVLW  00
6DBC:  ADDWFC x52,F
6DBE:  MOVLW  E2
6DC0:  MOVWF  x53
6DC2:  MOVFF  252,255
6DC6:  MOVFF  251,254
6DCA:  MOVLB  0
6DCC:  CALL   5D04
....................    guardar_MEM((long int)leer_MEM(0)+1,0); 
6DD0:  MOVLB  2
6DD2:  CLRF   x53
6DD4:  CLRF   x52
6DD6:  MOVLB  0
6DD8:  CALL   5C50
6DDC:  MOVLB  2
6DDE:  CLRF   x52
6DE0:  MOVFF  01,251
6DE4:  MOVLW  01
6DE6:  ADDWF  x51,F
6DE8:  MOVLW  00
6DEA:  ADDWFC x52,F
6DEC:  MOVFF  251,253
6DF0:  CLRF   x55
6DF2:  CLRF   x54
6DF4:  MOVLB  0
6DF6:  CALL   5D04
....................    estado_valvula_2_placa_2_anterior=estado_valvula_2_placa_2; 
6DFA:  MOVFF  188,18C
6DFE:  MOVLB  1
....................   } 
....................   if((estado_valvula_2_placa_2==0)&&((estado_valvula_2_placa_2!=estado_valvula_2_placa_2_anterior)||(inicializacion_2==1))) 
6E00:  MOVF   x88,F
6E02:  BNZ   6E6A
6E04:  MOVF   x8C,W
6E06:  SUBWF  x88,W
6E08:  BNZ   6E0E
6E0A:  DECFSZ xA8,W
6E0C:  BRA    6E6A
....................   { 
....................    guardar_MEM(227,(long int)leer_MEM(0)+1); 
6E0E:  MOVLB  2
6E10:  CLRF   x53
6E12:  CLRF   x52
6E14:  MOVLB  0
6E16:  CALL   5C50
6E1A:  MOVLB  2
6E1C:  CLRF   x52
6E1E:  MOVFF  01,251
6E22:  MOVLW  01
6E24:  ADDWF  x51,F
6E26:  MOVLW  00
6E28:  ADDWFC x52,F
6E2A:  MOVLW  E3
6E2C:  MOVWF  x53
6E2E:  MOVFF  252,255
6E32:  MOVFF  251,254
6E36:  MOVLB  0
6E38:  CALL   5D04
....................    guardar_MEM((long int)leer_MEM(0)+1,0); 
6E3C:  MOVLB  2
6E3E:  CLRF   x53
6E40:  CLRF   x52
6E42:  MOVLB  0
6E44:  CALL   5C50
6E48:  MOVLB  2
6E4A:  CLRF   x52
6E4C:  MOVFF  01,251
6E50:  MOVLW  01
6E52:  ADDWF  x51,F
6E54:  MOVLW  00
6E56:  ADDWFC x52,F
6E58:  MOVFF  251,253
6E5C:  CLRF   x55
6E5E:  CLRF   x54
6E60:  MOVLB  0
6E62:  CALL   5D04
....................    estado_valvula_2_placa_2_anterior=estado_valvula_2_placa_2; 
6E66:  MOVFF  188,18C
....................   } 
....................   guardar_MEM((byte)hora,(long int)leer_MEM(0)+1); 
6E6A:  MOVLB  2
6E6C:  CLRF   x53
6E6E:  CLRF   x52
6E70:  MOVLB  0
6E72:  CALL   5C50
6E76:  MOVLB  2
6E78:  CLRF   x52
6E7A:  MOVFF  01,251
6E7E:  MOVLW  01
6E80:  ADDWF  x51,F
6E82:  MOVLW  00
6E84:  ADDWFC x52,F
6E86:  MOVFF  7B,253
6E8A:  MOVFF  252,255
6E8E:  MOVFF  251,254
6E92:  MOVLB  0
6E94:  CALL   5D04
....................   guardar_MEM((long int)leer_MEM(0)+1,0); 
6E98:  MOVLB  2
6E9A:  CLRF   x53
6E9C:  CLRF   x52
6E9E:  MOVLB  0
6EA0:  CALL   5C50
6EA4:  MOVLB  2
6EA6:  CLRF   x52
6EA8:  MOVFF  01,251
6EAC:  MOVLW  01
6EAE:  ADDWF  x51,F
6EB0:  MOVLW  00
6EB2:  ADDWFC x52,F
6EB4:  MOVFF  251,253
6EB8:  CLRF   x55
6EBA:  CLRF   x54
6EBC:  MOVLB  0
6EBE:  CALL   5D04
....................   guardar_MEM((byte)minutos,(long int)leer_MEM(0)+1); 
6EC2:  MOVLB  2
6EC4:  CLRF   x53
6EC6:  CLRF   x52
6EC8:  MOVLB  0
6ECA:  CALL   5C50
6ECE:  MOVLB  2
6ED0:  CLRF   x52
6ED2:  MOVFF  01,251
6ED6:  MOVLW  01
6ED8:  ADDWF  x51,F
6EDA:  MOVLW  00
6EDC:  ADDWFC x52,F
6EDE:  MOVFF  7A,253
6EE2:  MOVFF  252,255
6EE6:  MOVFF  251,254
6EEA:  MOVLB  0
6EEC:  CALL   5D04
....................   guardar_MEM((long int)leer_MEM(0)+1,0); 
6EF0:  MOVLB  2
6EF2:  CLRF   x53
6EF4:  CLRF   x52
6EF6:  MOVLB  0
6EF8:  CALL   5C50
6EFC:  MOVLB  2
6EFE:  CLRF   x52
6F00:  MOVFF  01,251
6F04:  MOVLW  01
6F06:  ADDWF  x51,F
6F08:  MOVLW  00
6F0A:  ADDWFC x52,F
6F0C:  MOVFF  251,253
6F10:  CLRF   x55
6F12:  CLRF   x54
6F14:  MOVLB  0
6F16:  CALL   5D04
....................   inicializacion_1=0; 
6F1A:  MOVLB  1
6F1C:  CLRF   xA7
....................   inicializacion_2=0; 
6F1E:  CLRF   xA8
....................   estado_siguiente_maquina_reportes=ST_ACTIVO; 
6F20:  MOVLW  01
6F22:  MOVWF  x96
....................  break; 
6F24:  BRA    7424
....................  case ST_APERTURA_VALVULA_MANUAL: 
....................    if ((estado_valvula_1_placa_1!=estado_valvula_1_placa_1_anterior) ||(estado_valvula_2_placa_1!=estado_valvula_2_placa_1_anterior)) 
6F26:  MOVLB  1
6F28:  MOVF   x89,W
6F2A:  SUBWF  x85,W
6F2C:  BNZ   6F36
6F2E:  MOVF   x8A,W
6F30:  SUBWF  x86,W
6F32:  BTFSC  FD8.2
6F34:  BRA    70DE
....................    { 
....................     if (manual[1]==11) 
6F36:  MOVLB  0
6F38:  MOVF   xB2,W
6F3A:  SUBLW  0B
6F3C:  BNZ   6F9A
6F3E:  MOVF   xB3,F
6F40:  BNZ   6F9A
....................     { 
....................      guardar_MEM(210,(long int)leer_MEM(0)+1); 
6F42:  MOVLB  2
6F44:  CLRF   x53
6F46:  CLRF   x52
6F48:  MOVLB  0
6F4A:  CALL   5C50
6F4E:  MOVLB  2
6F50:  CLRF   x52
6F52:  MOVFF  01,251
6F56:  MOVLW  01
6F58:  ADDWF  x51,F
6F5A:  MOVLW  00
6F5C:  ADDWFC x52,F
6F5E:  MOVLW  D2
6F60:  MOVWF  x53
6F62:  MOVFF  252,255
6F66:  MOVFF  251,254
6F6A:  MOVLB  0
6F6C:  CALL   5D04
....................      guardar_MEM((long int)leer_MEM(0)+1,0); 
6F70:  MOVLB  2
6F72:  CLRF   x53
6F74:  CLRF   x52
6F76:  MOVLB  0
6F78:  CALL   5C50
6F7C:  MOVLB  2
6F7E:  CLRF   x52
6F80:  MOVFF  01,251
6F84:  MOVLW  01
6F86:  ADDWF  x51,F
6F88:  MOVLW  00
6F8A:  ADDWFC x52,F
6F8C:  MOVFF  251,253
6F90:  CLRF   x55
6F92:  CLRF   x54
6F94:  MOVLB  0
6F96:  CALL   5D04
....................     } 
....................     if (manual[1]==12) 
6F9A:  MOVF   xB2,W
6F9C:  SUBLW  0C
6F9E:  BNZ   6FFC
6FA0:  MOVF   xB3,F
6FA2:  BNZ   6FFC
....................     { 
....................      guardar_MEM(211,(long int)leer_MEM(0)+1); 
6FA4:  MOVLB  2
6FA6:  CLRF   x53
6FA8:  CLRF   x52
6FAA:  MOVLB  0
6FAC:  CALL   5C50
6FB0:  MOVLB  2
6FB2:  CLRF   x52
6FB4:  MOVFF  01,251
6FB8:  MOVLW  01
6FBA:  ADDWF  x51,F
6FBC:  MOVLW  00
6FBE:  ADDWFC x52,F
6FC0:  MOVLW  D3
6FC2:  MOVWF  x53
6FC4:  MOVFF  252,255
6FC8:  MOVFF  251,254
6FCC:  MOVLB  0
6FCE:  CALL   5D04
....................      guardar_MEM((long int)leer_MEM(0)+1,0); 
6FD2:  MOVLB  2
6FD4:  CLRF   x53
6FD6:  CLRF   x52
6FD8:  MOVLB  0
6FDA:  CALL   5C50
6FDE:  MOVLB  2
6FE0:  CLRF   x52
6FE2:  MOVFF  01,251
6FE6:  MOVLW  01
6FE8:  ADDWF  x51,F
6FEA:  MOVLW  00
6FEC:  ADDWFC x52,F
6FEE:  MOVFF  251,253
6FF2:  CLRF   x55
6FF4:  CLRF   x54
6FF6:  MOVLB  0
6FF8:  CALL   5D04
....................     } 
....................     if((((manual[1]==44)))||((manual[1]==46))) 
6FFC:  MOVF   xB2,W
6FFE:  SUBLW  2C
7000:  BNZ   7006
7002:  MOVF   xB3,F
7004:  BZ    7010
7006:  MOVF   xB2,W
7008:  SUBLW  2E
700A:  BNZ   7068
700C:  MOVF   xB3,F
700E:  BNZ   7068
....................     { 
....................      guardar_MEM(212,(long int)leer_MEM(0)+1); 
7010:  MOVLB  2
7012:  CLRF   x53
7014:  CLRF   x52
7016:  MOVLB  0
7018:  CALL   5C50
701C:  MOVLB  2
701E:  CLRF   x52
7020:  MOVFF  01,251
7024:  MOVLW  01
7026:  ADDWF  x51,F
7028:  MOVLW  00
702A:  ADDWFC x52,F
702C:  MOVLW  D4
702E:  MOVWF  x53
7030:  MOVFF  252,255
7034:  MOVFF  251,254
7038:  MOVLB  0
703A:  CALL   5D04
....................      guardar_MEM((long int)leer_MEM(0)+1,0); 
703E:  MOVLB  2
7040:  CLRF   x53
7042:  CLRF   x52
7044:  MOVLB  0
7046:  CALL   5C50
704A:  MOVLB  2
704C:  CLRF   x52
704E:  MOVFF  01,251
7052:  MOVLW  01
7054:  ADDWF  x51,F
7056:  MOVLW  00
7058:  ADDWFC x52,F
705A:  MOVFF  251,253
705E:  CLRF   x55
7060:  CLRF   x54
7062:  MOVLB  0
7064:  CALL   5D04
....................     } 
....................     if ((manual[1]==13)&&(manual_anterior[1]==11))  
7068:  MOVF   xB2,W
706A:  SUBLW  0D
706C:  BNZ   70D4
706E:  MOVF   xB3,F
7070:  BNZ   70D4
7072:  MOVF   xB8,W
7074:  SUBLW  0B
7076:  BNZ   70D4
7078:  MOVF   xB9,F
707A:  BNZ   70D4
....................     { 
....................      guardar_MEM(211,(long int)leer_MEM(0)+1); 
707C:  MOVLB  2
707E:  CLRF   x53
7080:  CLRF   x52
7082:  MOVLB  0
7084:  CALL   5C50
7088:  MOVLB  2
708A:  CLRF   x52
708C:  MOVFF  01,251
7090:  MOVLW  01
7092:  ADDWF  x51,F
7094:  MOVLW  00
7096:  ADDWFC x52,F
7098:  MOVLW  D3
709A:  MOVWF  x53
709C:  MOVFF  252,255
70A0:  MOVFF  251,254
70A4:  MOVLB  0
70A6:  CALL   5D04
....................      guardar_MEM((long int)leer_MEM(0)+1,0); 
70AA:  MOVLB  2
70AC:  CLRF   x53
70AE:  CLRF   x52
70B0:  MOVLB  0
70B2:  CALL   5C50
70B6:  MOVLB  2
70B8:  CLRF   x52
70BA:  MOVFF  01,251
70BE:  MOVLW  01
70C0:  ADDWF  x51,F
70C2:  MOVLW  00
70C4:  ADDWFC x52,F
70C6:  MOVFF  251,253
70CA:  CLRF   x55
70CC:  CLRF   x54
70CE:  MOVLB  0
70D0:  CALL   5D04
....................     } 
....................     manual_anterior[1]=manual[1]; 
70D4:  MOVFF  B3,B9
70D8:  MOVFF  B2,B8
70DC:  MOVLB  1
....................      } 
....................    if ((estado_valvula_1_placa_2!=estado_valvula_1_placa_2_anterior)||(estado_valvula_2_placa_2!=estado_valvula_2_placa_2_anterior)) 
70DE:  MOVF   x8B,W
70E0:  SUBWF  x87,W
70E2:  BNZ   70EC
70E4:  MOVF   x8C,W
70E6:  SUBWF  x88,W
70E8:  BTFSC  FD8.2
70EA:  BRA    736A
....................    { 
....................     if ((manual[1]==23)&&(manual_anterior[1]==12)) 
70EC:  MOVLB  0
70EE:  MOVF   xB2,W
70F0:  SUBLW  17
70F2:  BNZ   715A
70F4:  MOVF   xB3,F
70F6:  BNZ   715A
70F8:  MOVF   xB8,W
70FA:  SUBLW  0C
70FC:  BNZ   715A
70FE:  MOVF   xB9,F
7100:  BNZ   715A
....................     { 
....................      guardar_MEM(210,(long int)leer_MEM(0)+1); 
7102:  MOVLB  2
7104:  CLRF   x53
7106:  CLRF   x52
7108:  MOVLB  0
710A:  CALL   5C50
710E:  MOVLB  2
7110:  CLRF   x52
7112:  MOVFF  01,251
7116:  MOVLW  01
7118:  ADDWF  x51,F
711A:  MOVLW  00
711C:  ADDWFC x52,F
711E:  MOVLW  D2
7120:  MOVWF  x53
7122:  MOVFF  252,255
7126:  MOVFF  251,254
712A:  MOVLB  0
712C:  CALL   5D04
....................      guardar_MEM((long int)leer_MEM(0)+1,0); 
7130:  MOVLB  2
7132:  CLRF   x53
7134:  CLRF   x52
7136:  MOVLB  0
7138:  CALL   5C50
713C:  MOVLB  2
713E:  CLRF   x52
7140:  MOVFF  01,251
7144:  MOVLW  01
7146:  ADDWF  x51,F
7148:  MOVLW  00
714A:  ADDWFC x52,F
714C:  MOVFF  251,253
7150:  CLRF   x55
7152:  CLRF   x54
7154:  MOVLB  0
7156:  CALL   5D04
....................     } 
....................     if (manual[2]==21) 
715A:  MOVF   xB4,W
715C:  SUBLW  15
715E:  BNZ   71BC
7160:  MOVF   xB5,F
7162:  BNZ   71BC
....................     { 
....................      guardar_MEM(213,(long int)leer_MEM(0)+1); 
7164:  MOVLB  2
7166:  CLRF   x53
7168:  CLRF   x52
716A:  MOVLB  0
716C:  CALL   5C50
7170:  MOVLB  2
7172:  CLRF   x52
7174:  MOVFF  01,251
7178:  MOVLW  01
717A:  ADDWF  x51,F
717C:  MOVLW  00
717E:  ADDWFC x52,F
7180:  MOVLW  D5
7182:  MOVWF  x53
7184:  MOVFF  252,255
7188:  MOVFF  251,254
718C:  MOVLB  0
718E:  CALL   5D04
....................      guardar_MEM((long int)leer_MEM(0)+1,0); 
7192:  MOVLB  2
7194:  CLRF   x53
7196:  CLRF   x52
7198:  MOVLB  0
719A:  CALL   5C50
719E:  MOVLB  2
71A0:  CLRF   x52
71A2:  MOVFF  01,251
71A6:  MOVLW  01
71A8:  ADDWF  x51,F
71AA:  MOVLW  00
71AC:  ADDWFC x52,F
71AE:  MOVFF  251,253
71B2:  CLRF   x55
71B4:  CLRF   x54
71B6:  MOVLB  0
71B8:  CALL   5D04
....................     } 
....................     if (manual[2]==22)  
71BC:  MOVF   xB4,W
71BE:  SUBLW  16
71C0:  BNZ   721E
71C2:  MOVF   xB5,F
71C4:  BNZ   721E
....................     { 
....................      guardar_MEM(214,(long int)leer_MEM(0)+1); 
71C6:  MOVLB  2
71C8:  CLRF   x53
71CA:  CLRF   x52
71CC:  MOVLB  0
71CE:  CALL   5C50
71D2:  MOVLB  2
71D4:  CLRF   x52
71D6:  MOVFF  01,251
71DA:  MOVLW  01
71DC:  ADDWF  x51,F
71DE:  MOVLW  00
71E0:  ADDWFC x52,F
71E2:  MOVLW  D6
71E4:  MOVWF  x53
71E6:  MOVFF  252,255
71EA:  MOVFF  251,254
71EE:  MOVLB  0
71F0:  CALL   5D04
....................      guardar_MEM((long int)leer_MEM(0)+1,0); 
71F4:  MOVLB  2
71F6:  CLRF   x53
71F8:  CLRF   x52
71FA:  MOVLB  0
71FC:  CALL   5C50
7200:  MOVLB  2
7202:  CLRF   x52
7204:  MOVFF  01,251
7208:  MOVLW  01
720A:  ADDWF  x51,F
720C:  MOVLW  00
720E:  ADDWFC x52,F
7210:  MOVFF  251,253
7214:  CLRF   x55
7216:  CLRF   x54
7218:  MOVLB  0
721A:  CALL   5D04
....................     } 
....................     if (((manual[2]==44))||((manual[2]==46))) 
721E:  MOVF   xB4,W
7220:  SUBLW  2C
7222:  BNZ   7228
7224:  MOVF   xB5,F
7226:  BZ    7232
7228:  MOVF   xB4,W
722A:  SUBLW  2E
722C:  BNZ   728A
722E:  MOVF   xB5,F
7230:  BNZ   728A
....................     { 
....................      guardar_MEM(215,(long int)leer_MEM(0)+1); 
7232:  MOVLB  2
7234:  CLRF   x53
7236:  CLRF   x52
7238:  MOVLB  0
723A:  CALL   5C50
723E:  MOVLB  2
7240:  CLRF   x52
7242:  MOVFF  01,251
7246:  MOVLW  01
7248:  ADDWF  x51,F
724A:  MOVLW  00
724C:  ADDWFC x52,F
724E:  MOVLW  D7
7250:  MOVWF  x53
7252:  MOVFF  252,255
7256:  MOVFF  251,254
725A:  MOVLB  0
725C:  CALL   5D04
....................      guardar_MEM((long int)leer_MEM(0)+1,0); 
7260:  MOVLB  2
7262:  CLRF   x53
7264:  CLRF   x52
7266:  MOVLB  0
7268:  CALL   5C50
726C:  MOVLB  2
726E:  CLRF   x52
7270:  MOVFF  01,251
7274:  MOVLW  01
7276:  ADDWF  x51,F
7278:  MOVLW  00
727A:  ADDWFC x52,F
727C:  MOVFF  251,253
7280:  CLRF   x55
7282:  CLRF   x54
7284:  MOVLB  0
7286:  CALL   5D04
....................     } 
....................     if ((manual[2]==23)&&(manual_anterior[2]==21))  
728A:  MOVF   xB4,W
728C:  SUBLW  17
728E:  BNZ   72F6
7290:  MOVF   xB5,F
7292:  BNZ   72F6
7294:  MOVF   xBA,W
7296:  SUBLW  15
7298:  BNZ   72F6
729A:  MOVF   xBB,F
729C:  BNZ   72F6
....................     { 
....................      guardar_MEM(214,(long int)leer_MEM(0)+1); 
729E:  MOVLB  2
72A0:  CLRF   x53
72A2:  CLRF   x52
72A4:  MOVLB  0
72A6:  CALL   5C50
72AA:  MOVLB  2
72AC:  CLRF   x52
72AE:  MOVFF  01,251
72B2:  MOVLW  01
72B4:  ADDWF  x51,F
72B6:  MOVLW  00
72B8:  ADDWFC x52,F
72BA:  MOVLW  D6
72BC:  MOVWF  x53
72BE:  MOVFF  252,255
72C2:  MOVFF  251,254
72C6:  MOVLB  0
72C8:  CALL   5D04
....................      guardar_MEM((long int)leer_MEM(0)+1,0); 
72CC:  MOVLB  2
72CE:  CLRF   x53
72D0:  CLRF   x52
72D2:  MOVLB  0
72D4:  CALL   5C50
72D8:  MOVLB  2
72DA:  CLRF   x52
72DC:  MOVFF  01,251
72E0:  MOVLW  01
72E2:  ADDWF  x51,F
72E4:  MOVLW  00
72E6:  ADDWFC x52,F
72E8:  MOVFF  251,253
72EC:  CLRF   x55
72EE:  CLRF   x54
72F0:  MOVLB  0
72F2:  CALL   5D04
....................     } 
....................     if ((manual[2]==23)&&(manual_anterior[2]==22))  
72F6:  MOVF   xB4,W
72F8:  SUBLW  17
72FA:  BNZ   7362
72FC:  MOVF   xB5,F
72FE:  BNZ   7362
7300:  MOVF   xBA,W
7302:  SUBLW  16
7304:  BNZ   7362
7306:  MOVF   xBB,F
7308:  BNZ   7362
....................     { 
....................      guardar_MEM(213,(long int)leer_MEM(0)+1); 
730A:  MOVLB  2
730C:  CLRF   x53
730E:  CLRF   x52
7310:  MOVLB  0
7312:  CALL   5C50
7316:  MOVLB  2
7318:  CLRF   x52
731A:  MOVFF  01,251
731E:  MOVLW  01
7320:  ADDWF  x51,F
7322:  MOVLW  00
7324:  ADDWFC x52,F
7326:  MOVLW  D5
7328:  MOVWF  x53
732A:  MOVFF  252,255
732E:  MOVFF  251,254
7332:  MOVLB  0
7334:  CALL   5D04
....................      guardar_MEM((long int)leer_MEM(0)+1,0); 
7338:  MOVLB  2
733A:  CLRF   x53
733C:  CLRF   x52
733E:  MOVLB  0
7340:  CALL   5C50
7344:  MOVLB  2
7346:  CLRF   x52
7348:  MOVFF  01,251
734C:  MOVLW  01
734E:  ADDWF  x51,F
7350:  MOVLW  00
7352:  ADDWFC x52,F
7354:  MOVFF  251,253
7358:  CLRF   x55
735A:  CLRF   x54
735C:  MOVLB  0
735E:  CALL   5D04
....................     } 
....................     manual_anterior[2]=manual[2]; 
7362:  MOVFF  B5,BB
7366:  MOVFF  B4,BA
....................    } 
....................    guardar_MEM((byte)hora,(long int)leer_MEM(0)+1); 
736A:  MOVLB  2
736C:  CLRF   x53
736E:  CLRF   x52
7370:  MOVLB  0
7372:  CALL   5C50
7376:  MOVLB  2
7378:  CLRF   x52
737A:  MOVFF  01,251
737E:  MOVLW  01
7380:  ADDWF  x51,F
7382:  MOVLW  00
7384:  ADDWFC x52,F
7386:  MOVFF  7B,253
738A:  MOVFF  252,255
738E:  MOVFF  251,254
7392:  MOVLB  0
7394:  CALL   5D04
....................    guardar_MEM((long int)leer_MEM(0)+1,0); 
7398:  MOVLB  2
739A:  CLRF   x53
739C:  CLRF   x52
739E:  MOVLB  0
73A0:  CALL   5C50
73A4:  MOVLB  2
73A6:  CLRF   x52
73A8:  MOVFF  01,251
73AC:  MOVLW  01
73AE:  ADDWF  x51,F
73B0:  MOVLW  00
73B2:  ADDWFC x52,F
73B4:  MOVFF  251,253
73B8:  CLRF   x55
73BA:  CLRF   x54
73BC:  MOVLB  0
73BE:  CALL   5D04
....................    guardar_MEM((byte)minutos,(long int)leer_MEM(0)+1); 
73C2:  MOVLB  2
73C4:  CLRF   x53
73C6:  CLRF   x52
73C8:  MOVLB  0
73CA:  CALL   5C50
73CE:  MOVLB  2
73D0:  CLRF   x52
73D2:  MOVFF  01,251
73D6:  MOVLW  01
73D8:  ADDWF  x51,F
73DA:  MOVLW  00
73DC:  ADDWFC x52,F
73DE:  MOVFF  7A,253
73E2:  MOVFF  252,255
73E6:  MOVFF  251,254
73EA:  MOVLB  0
73EC:  CALL   5D04
....................    guardar_MEM((long int)leer_MEM(0)+1,0); 
73F0:  MOVLB  2
73F2:  CLRF   x53
73F4:  CLRF   x52
73F6:  MOVLB  0
73F8:  CALL   5C50
73FC:  MOVLB  2
73FE:  CLRF   x52
7400:  MOVFF  01,251
7404:  MOVLW  01
7406:  ADDWF  x51,F
7408:  MOVLW  00
740A:  ADDWFC x52,F
740C:  MOVFF  251,253
7410:  CLRF   x55
7412:  CLRF   x54
7414:  MOVLB  0
7416:  CALL   5D04
....................    estado_siguiente_maquina_reportes=ST_ACTIVO; 
741A:  MOVLW  01
741C:  MOVLB  1
741E:  MOVWF  x96
.................... break; 
7420:  BRA    7424
7422:  MOVLB  1
....................   } 
.................... } 
7424:  MOVLW  F6
7426:  MOVWF  xD1
7428:  MOVLW  5D
742A:  MOVWF  xD2
742C:  GOTO   7F16
7430:  MOVLB  0
7432:  RETURN 0
....................  
.................... void maquina_de_estado_bluetooth() 
.................... { 
....................  switch (estado_siguiente_maquina_blue){ 
*
77FE:  MOVLB  1
7800:  MOVF   x9C,W
7802:  ADDLW  FC
7804:  BTFSC  FD8.0
7806:  BRA    7960
7808:  ADDLW  04
780A:  MOVLB  0
780C:  GOTO   7970
....................     case ST_INI_BLUE: 
....................       estado_siguiente_maquina_blue=ST_BLUE_ACTIVO; 
7810:  MOVLW  01
7812:  MOVLB  1
7814:  MOVWF  x9C
....................    break; 
7816:  BRA    7960
....................    case ST_BLUE_ACTIVO: 
....................      if (tx_blue==1) estado_siguiente_maquina_blue= ST_BLUE_TX; 
7818:  MOVLB  1
781A:  DECFSZ x9F,W
781C:  BRA    7822
781E:  MOVLW  02
7820:  MOVWF  x9C
....................      if (rx_blue==1)estado_siguiente_maquina_blue=ST_BLUE_RX; 
7822:  DECFSZ xA0,W
7824:  BRA    782A
7826:  MOVLW  03
7828:  MOVWF  x9C
....................    break; 
782A:  BRA    7960
....................    case ST_BLUE_TX: 
....................      fprintf(PORT2,"Datos guardados:\n\r"); 
782C:  MOVLW  92
782E:  MOVWF  FF6
7830:  MOVLW  79
7832:  MOVWF  FF7
7834:  RCALL  74A0
....................      for(i=0;i<=(long int)leer_MEM(0);i++)     
7836:  CLRF   21
7838:  MOVLB  2
783A:  CLRF   x53
783C:  CLRF   x52
783E:  MOVLB  0
7840:  CALL   5C50
7844:  CLRF   03
7846:  MOVF   01,W
7848:  MOVF   03,F
784A:  BNZ   7852
784C:  MOVF   21,W
784E:  SUBWF  01,W
7850:  BNC   78D8
....................      { 
....................        delay_us(650); 
7852:  MOVLW  05
7854:  MOVLB  2
7856:  MOVWF  x51
7858:  MOVLW  81
785A:  MOVWF  x55
785C:  MOVLB  0
785E:  CALL   0C9E
7862:  MOVLB  2
7864:  DECFSZ x51,F
7866:  BRA    7858
....................        itoa((int)leer_MEM(i),10, string); 
7868:  CLRF   x53
786A:  MOVFF  21,252
786E:  MOVLB  0
7870:  CALL   5C50
7874:  MOVFF  01,251
7878:  MOVLB  2
787A:  CLRF   x55
787C:  CLRF   x54
787E:  CLRF   x53
7880:  MOVFF  01,252
7884:  MOVLW  0A
7886:  MOVWF  x56
7888:  MOVLW  01
788A:  MOVWF  x58
788C:  MOVLW  91
788E:  MOVWF  x57
7890:  MOVLB  0
7892:  BRA    7608
....................        fprintf(PORT2, string) ; 
7894:  MOVLW  01
7896:  MOVWF  FEA
7898:  MOVLW  91
789A:  MOVWF  FE9
789C:  BRA    77D8
....................        fprintf(PORT2,";") ;    
789E:  MOVLW  3B
78A0:  MOVLB  2
78A2:  MOVWF  x53
78A4:  MOVLB  0
78A6:  RCALL  745C
....................        if ((int)leer_MEM(i+1)>100) fprintf(PORT2,"\n\r"); 
78A8:  MOVLW  01
78AA:  ADDWF  21,W
78AC:  MOVLB  2
78AE:  MOVWF  x51
78B0:  CLRF   x53
78B2:  MOVWF  x52
78B4:  MOVLB  0
78B6:  CALL   5C50
78BA:  MOVF   01,W
78BC:  SUBLW  64
78BE:  BC    78D4
78C0:  MOVLW  0A
78C2:  MOVLB  2
78C4:  MOVWF  x53
78C6:  MOVLB  0
78C8:  RCALL  745C
78CA:  MOVLW  0D
78CC:  MOVLB  2
78CE:  MOVWF  x53
78D0:  MOVLB  0
78D2:  RCALL  745C
....................      } 
78D4:  INCF   21,F
78D6:  BRA    7838
....................      fprintf(PORT2,"\n\r"); 
78D8:  MOVLW  0A
78DA:  MOVLB  2
78DC:  MOVWF  x53
78DE:  MOVLB  0
78E0:  RCALL  745C
78E2:  MOVLW  0D
78E4:  MOVLB  2
78E6:  MOVWF  x53
78E8:  MOVLB  0
78EA:  RCALL  745C
....................      tx_blue=0; 
78EC:  MOVLB  1
78EE:  CLRF   x9F
....................      estado_siguiente_maquina_blue=ST_BLUE_ACTIVO; 
78F0:  MOVLW  01
78F2:  MOVWF  x9C
....................    break; 
78F4:  BRA    7960
....................    case ST_BLUE_RX: 
....................      if  (caracter_rx_blue=='E') 
78F6:  MOVLB  1
78F8:  MOVF   x9D,W
78FA:  SUBLW  45
78FC:  BNZ   7910
....................      { 
....................       caracter_anterior_rx_blue='E'; 
78FE:  MOVLW  45
7900:  MOVWF  x9E
....................       fprintf(PORT2,"Eliminar historial(s/n)?:\n"); 
7902:  MOVLW  A6
7904:  MOVWF  FF6
7906:  MOVLW  79
7908:  MOVWF  FF7
790A:  MOVLB  0
790C:  RCALL  74A0
790E:  MOVLB  1
....................      } 
....................      if ((caracter_anterior_rx_blue=='E')&&(caracter_rx_blue=='N')) 
7910:  MOVF   x9E,W
7912:  SUBLW  45
7914:  BNZ   792E
7916:  MOVF   x9D,W
7918:  SUBLW  4E
791A:  BNZ   792E
....................      { 
....................       caracter_anterior_rx_blue='k'; 
791C:  MOVLW  6B
791E:  MOVWF  x9E
....................       fprintf(PORT2,"El historial no se elimino\n\r"); 
7920:  MOVLW  C2
7922:  MOVWF  FF6
7924:  MOVLW  79
7926:  MOVWF  FF7
7928:  MOVLB  0
792A:  RCALL  74A0
792C:  MOVLB  1
....................      } 
....................      if ((caracter_anterior_rx_blue=='E')&&(caracter_rx_blue=='S')) 
792E:  MOVF   x9E,W
7930:  SUBLW  45
7932:  BNZ   7956
7934:  MOVF   x9D,W
7936:  SUBLW  53
7938:  BNZ   7956
....................      { 
....................       guardar_MEM(0,0); 
793A:  MOVLB  2
793C:  CLRF   x53
793E:  CLRF   x55
7940:  CLRF   x54
7942:  MOVLB  0
7944:  CALL   5D04
....................       fprintf(PORT2,"Se elimino el historial\n\r"); 
7948:  MOVLW  E0
794A:  MOVWF  FF6
794C:  MOVLW  79
794E:  MOVWF  FF7
7950:  RCALL  74A0
....................       estado_siguiente_maquina_reportes =ST_INI; 
7952:  MOVLB  1
7954:  CLRF   x96
....................      } 
....................      rx_blue=0; 
7956:  CLRF   xA0
....................      estado_siguiente_maquina_blue=ST_BLUE_ACTIVO; 
7958:  MOVLW  01
795A:  MOVWF  x9C
....................  break; 
795C:  BRA    7960
795E:  MOVLB  1
.................... } 
.................... } 
7960:  MOVLW  FE
7962:  MOVWF  xD8
7964:  MOVLW  77
7966:  MOVWF  xD9
7968:  GOTO   7F16
796C:  MOVLB  0
796E:  RETURN 0
....................   
....................  

Configuration Fuses:
   Word  1: CC00   PLL1 CPUDIV1 NOUSBDIV HS FCMEN IESO
   Word  2: 0E3E   PUT BROWNOUT BORV20 VREGEN NOWDT WDT128
   Word  3: 0500   CCP2C1 NOPBADEN LPT1OSC NOMCLR
   Word  4: 00A1   STVREN NOLVP ICSP2 NOXINST NODEBUG
   Word  5: C00F   NOPROTECT NOCPB NOCPD
   Word  6: E00F   NOWRT NOWRTC NOWRTB NOWRTD
   Word  7: 400F   NOEBTR NOEBTRB
